
Optional file libmchp_peripheral.a not found

Optional file libmchp_peripheral_32MX170F256B.a not found
Archive member included because of file (symbol)

e:/pic/bin/bin/../../lib/gcc/pic32mx/4.8.3\libgcc.a(floatunsisf.o)
                              build/default/production/ILI9341.o (__floatunsisf)
e:/pic/bin/bin/../../lib/gcc/pic32mx/4.8.3/../../../../pic32mx/lib\libpic32.a(memcpy.o)
                              build/default/production/main.o (memcpy)
e:/pic/bin/bin/../../lib/gcc/pic32mx/4.8.3/../../../../pic32mx/lib\libpic32.a(memset.o)
                              build/default/production/MT3339.o (memset)
e:/pic/bin/bin/../../lib/gcc/pic32mx/4.8.3/../../../../pic32mx/lib\libpic32.a(strlen.o)
                              build/default/production/MT3339.o (strlen)
e:/pic/bin/bin/../../lib/gcc/pic32mx/4.8.3/../../../../pic32mx/lib\libpic32.a(default-bootstrap-exception-handler.o)
                              e:/pic/bin/bin/../../lib/gcc/pic32mx/4.8.3/../../../../pic32mx/lib/./proc/32MX170F256B/crt0_mips32r2.o (_bootstrap_exception_handler)
e:/pic/bin/bin/../../lib/gcc/pic32mx/4.8.3/../../../../pic32mx/lib\libpic32.a(default-on-reset.o)
                              e:/pic/bin/bin/../../lib/gcc/pic32mx/4.8.3/../../../../pic32mx/lib/./proc/32MX170F256B/crt0_mips32r2.o (_on_reset)
e:/pic/bin/bin/../../lib/gcc/pic32mx/4.8.3/../../../../pic32mx/lib\libpic32.a(default-on-bootstrap.o)
                              e:/pic/bin/bin/../../lib/gcc/pic32mx/4.8.3/../../../../pic32mx/lib/./proc/32MX170F256B/crt0_mips32r2.o (_on_bootstrap)
e:/pic/bin/bin/../../lib/gcc/pic32mx/4.8.3/../../../../pic32mx/lib\libpic32.a(default-nmi-handler.o)
                              e:/pic/bin/bin/../../lib/gcc/pic32mx/4.8.3/../../../../pic32mx/lib/./proc/32MX170F256B/crt0_mips32r2.o (_nmi_handler)
e:/pic/bin/bin/../../lib/gcc/pic32mx/4.8.3/../../../../pic32mx/lib\libpic32.a(pic32_data_init.o)
                              e:/pic/bin/bin/../../lib/gcc/pic32mx/4.8.3/../../../../pic32mx/lib/./proc/32MX170F256B/crt0_mips32r2.o (__pic32_data_init)
e:/pic/bin/bin/../../lib/gcc/pic32mx/4.8.3/../../../../pic32mx/lib\libpic32.a(general-exception.o)
                              e:/pic/bin/bin/../../lib/gcc/pic32mx/4.8.3/../../../../pic32mx/lib/./proc/32MX170F256B/crt0_mips32r2.o (_general_exception_context)
e:/pic/bin/bin/../../lib/gcc/pic32mx/4.8.3/../../../../pic32mx/lib\libpic32.a(vector0.o)
                              e:/pic/bin/bin/../../lib/gcc/pic32mx/4.8.3/../../../../pic32mx/lib/./proc/32MX170F256B\default_isr_vectors.o (__vector_dispatch_0)
e:/pic/bin/bin/../../lib/gcc/pic32mx/4.8.3/../../../../pic32mx/lib\libpic32.a(vector1.o)
                              e:/pic/bin/bin/../../lib/gcc/pic32mx/4.8.3/../../../../pic32mx/lib/./proc/32MX170F256B\default_isr_vectors.o (__vector_dispatch_1)
e:/pic/bin/bin/../../lib/gcc/pic32mx/4.8.3/../../../../pic32mx/lib\libpic32.a(vector2.o)
                              e:/pic/bin/bin/../../lib/gcc/pic32mx/4.8.3/../../../../pic32mx/lib/./proc/32MX170F256B\default_isr_vectors.o (__vector_dispatch_2)
e:/pic/bin/bin/../../lib/gcc/pic32mx/4.8.3/../../../../pic32mx/lib\libpic32.a(vector3.o)
                              e:/pic/bin/bin/../../lib/gcc/pic32mx/4.8.3/../../../../pic32mx/lib/./proc/32MX170F256B\default_isr_vectors.o (__vector_dispatch_3)
e:/pic/bin/bin/../../lib/gcc/pic32mx/4.8.3/../../../../pic32mx/lib\libpic32.a(vector4.o)
                              e:/pic/bin/bin/../../lib/gcc/pic32mx/4.8.3/../../../../pic32mx/lib/./proc/32MX170F256B\default_isr_vectors.o (__vector_dispatch_4)
e:/pic/bin/bin/../../lib/gcc/pic32mx/4.8.3/../../../../pic32mx/lib\libpic32.a(vector5.o)
                              e:/pic/bin/bin/../../lib/gcc/pic32mx/4.8.3/../../../../pic32mx/lib/./proc/32MX170F256B\default_isr_vectors.o (__vector_dispatch_5)
e:/pic/bin/bin/../../lib/gcc/pic32mx/4.8.3/../../../../pic32mx/lib\libpic32.a(vector6.o)
                              e:/pic/bin/bin/../../lib/gcc/pic32mx/4.8.3/../../../../pic32mx/lib/./proc/32MX170F256B\default_isr_vectors.o (__vector_dispatch_6)
e:/pic/bin/bin/../../lib/gcc/pic32mx/4.8.3/../../../../pic32mx/lib\libpic32.a(vector7.o)
                              e:/pic/bin/bin/../../lib/gcc/pic32mx/4.8.3/../../../../pic32mx/lib/./proc/32MX170F256B\default_isr_vectors.o (__vector_dispatch_7)
e:/pic/bin/bin/../../lib/gcc/pic32mx/4.8.3/../../../../pic32mx/lib\libpic32.a(vector8.o)
                              e:/pic/bin/bin/../../lib/gcc/pic32mx/4.8.3/../../../../pic32mx/lib/./proc/32MX170F256B\default_isr_vectors.o (__vector_dispatch_8)
e:/pic/bin/bin/../../lib/gcc/pic32mx/4.8.3/../../../../pic32mx/lib\libpic32.a(vector9.o)
                              e:/pic/bin/bin/../../lib/gcc/pic32mx/4.8.3/../../../../pic32mx/lib/./proc/32MX170F256B\default_isr_vectors.o (__vector_dispatch_9)
e:/pic/bin/bin/../../lib/gcc/pic32mx/4.8.3/../../../../pic32mx/lib\libpic32.a(vector10.o)
                              e:/pic/bin/bin/../../lib/gcc/pic32mx/4.8.3/../../../../pic32mx/lib/./proc/32MX170F256B\default_isr_vectors.o (__vector_dispatch_10)
e:/pic/bin/bin/../../lib/gcc/pic32mx/4.8.3/../../../../pic32mx/lib\libpic32.a(vector11.o)
                              e:/pic/bin/bin/../../lib/gcc/pic32mx/4.8.3/../../../../pic32mx/lib/./proc/32MX170F256B\default_isr_vectors.o (__vector_dispatch_11)
e:/pic/bin/bin/../../lib/gcc/pic32mx/4.8.3/../../../../pic32mx/lib\libpic32.a(vector12.o)
                              e:/pic/bin/bin/../../lib/gcc/pic32mx/4.8.3/../../../../pic32mx/lib/./proc/32MX170F256B\default_isr_vectors.o (__vector_dispatch_12)
e:/pic/bin/bin/../../lib/gcc/pic32mx/4.8.3/../../../../pic32mx/lib\libpic32.a(vector13.o)
                              e:/pic/bin/bin/../../lib/gcc/pic32mx/4.8.3/../../../../pic32mx/lib/./proc/32MX170F256B\default_isr_vectors.o (__vector_dispatch_13)
e:/pic/bin/bin/../../lib/gcc/pic32mx/4.8.3/../../../../pic32mx/lib\libpic32.a(vector14.o)
                              e:/pic/bin/bin/../../lib/gcc/pic32mx/4.8.3/../../../../pic32mx/lib/./proc/32MX170F256B\default_isr_vectors.o (__vector_dispatch_14)
e:/pic/bin/bin/../../lib/gcc/pic32mx/4.8.3/../../../../pic32mx/lib\libpic32.a(vector15.o)
                              e:/pic/bin/bin/../../lib/gcc/pic32mx/4.8.3/../../../../pic32mx/lib/./proc/32MX170F256B\default_isr_vectors.o (__vector_dispatch_15)
e:/pic/bin/bin/../../lib/gcc/pic32mx/4.8.3/../../../../pic32mx/lib\libpic32.a(vector16.o)
                              e:/pic/bin/bin/../../lib/gcc/pic32mx/4.8.3/../../../../pic32mx/lib/./proc/32MX170F256B\default_isr_vectors.o (__vector_dispatch_16)
e:/pic/bin/bin/../../lib/gcc/pic32mx/4.8.3/../../../../pic32mx/lib\libpic32.a(vector17.o)
                              e:/pic/bin/bin/../../lib/gcc/pic32mx/4.8.3/../../../../pic32mx/lib/./proc/32MX170F256B\default_isr_vectors.o (__vector_dispatch_17)
e:/pic/bin/bin/../../lib/gcc/pic32mx/4.8.3/../../../../pic32mx/lib\libpic32.a(vector18.o)
                              e:/pic/bin/bin/../../lib/gcc/pic32mx/4.8.3/../../../../pic32mx/lib/./proc/32MX170F256B\default_isr_vectors.o (__vector_dispatch_18)
e:/pic/bin/bin/../../lib/gcc/pic32mx/4.8.3/../../../../pic32mx/lib\libpic32.a(vector19.o)
                              e:/pic/bin/bin/../../lib/gcc/pic32mx/4.8.3/../../../../pic32mx/lib/./proc/32MX170F256B\default_isr_vectors.o (__vector_dispatch_19)
e:/pic/bin/bin/../../lib/gcc/pic32mx/4.8.3/../../../../pic32mx/lib\libpic32.a(vector20.o)
                              e:/pic/bin/bin/../../lib/gcc/pic32mx/4.8.3/../../../../pic32mx/lib/./proc/32MX170F256B\default_isr_vectors.o (__vector_dispatch_20)
e:/pic/bin/bin/../../lib/gcc/pic32mx/4.8.3/../../../../pic32mx/lib\libpic32.a(vector21.o)
                              e:/pic/bin/bin/../../lib/gcc/pic32mx/4.8.3/../../../../pic32mx/lib/./proc/32MX170F256B\default_isr_vectors.o (__vector_dispatch_21)
e:/pic/bin/bin/../../lib/gcc/pic32mx/4.8.3/../../../../pic32mx/lib\libpic32.a(vector22.o)
                              e:/pic/bin/bin/../../lib/gcc/pic32mx/4.8.3/../../../../pic32mx/lib/./proc/32MX170F256B\default_isr_vectors.o (__vector_dispatch_22)
e:/pic/bin/bin/../../lib/gcc/pic32mx/4.8.3/../../../../pic32mx/lib\libpic32.a(vector23.o)
                              e:/pic/bin/bin/../../lib/gcc/pic32mx/4.8.3/../../../../pic32mx/lib/./proc/32MX170F256B\default_isr_vectors.o (__vector_dispatch_23)
e:/pic/bin/bin/../../lib/gcc/pic32mx/4.8.3/../../../../pic32mx/lib\libpic32.a(vector24.o)
                              e:/pic/bin/bin/../../lib/gcc/pic32mx/4.8.3/../../../../pic32mx/lib/./proc/32MX170F256B\default_isr_vectors.o (__vector_dispatch_24)
e:/pic/bin/bin/../../lib/gcc/pic32mx/4.8.3/../../../../pic32mx/lib\libpic32.a(vector25.o)
                              e:/pic/bin/bin/../../lib/gcc/pic32mx/4.8.3/../../../../pic32mx/lib/./proc/32MX170F256B\default_isr_vectors.o (__vector_dispatch_25)
e:/pic/bin/bin/../../lib/gcc/pic32mx/4.8.3/../../../../pic32mx/lib\libpic32.a(vector26.o)
                              e:/pic/bin/bin/../../lib/gcc/pic32mx/4.8.3/../../../../pic32mx/lib/./proc/32MX170F256B\default_isr_vectors.o (__vector_dispatch_26)
e:/pic/bin/bin/../../lib/gcc/pic32mx/4.8.3/../../../../pic32mx/lib\libpic32.a(vector27.o)
                              e:/pic/bin/bin/../../lib/gcc/pic32mx/4.8.3/../../../../pic32mx/lib/./proc/32MX170F256B\default_isr_vectors.o (__vector_dispatch_27)
e:/pic/bin/bin/../../lib/gcc/pic32mx/4.8.3/../../../../pic32mx/lib\libpic32.a(vector28.o)
                              e:/pic/bin/bin/../../lib/gcc/pic32mx/4.8.3/../../../../pic32mx/lib/./proc/32MX170F256B\default_isr_vectors.o (__vector_dispatch_28)
e:/pic/bin/bin/../../lib/gcc/pic32mx/4.8.3/../../../../pic32mx/lib\libpic32.a(vector29.o)
                              e:/pic/bin/bin/../../lib/gcc/pic32mx/4.8.3/../../../../pic32mx/lib/./proc/32MX170F256B\default_isr_vectors.o (__vector_dispatch_29)
e:/pic/bin/bin/../../lib/gcc/pic32mx/4.8.3/../../../../pic32mx/lib\libpic32.a(vector30.o)
                              e:/pic/bin/bin/../../lib/gcc/pic32mx/4.8.3/../../../../pic32mx/lib/./proc/32MX170F256B\default_isr_vectors.o (__vector_dispatch_30)
e:/pic/bin/bin/../../lib/gcc/pic32mx/4.8.3/../../../../pic32mx/lib\libpic32.a(vector31.o)
                              e:/pic/bin/bin/../../lib/gcc/pic32mx/4.8.3/../../../../pic32mx/lib/./proc/32MX170F256B\default_isr_vectors.o (__vector_dispatch_31)
e:/pic/bin/bin/../../lib/gcc/pic32mx/4.8.3/../../../../pic32mx/lib\libpic32.a(vector33.o)
                              e:/pic/bin/bin/../../lib/gcc/pic32mx/4.8.3/../../../../pic32mx/lib/./proc/32MX170F256B\default_isr_vectors.o (__vector_dispatch_33)
e:/pic/bin/bin/../../lib/gcc/pic32mx/4.8.3/../../../../pic32mx/lib\libpic32.a(vector34.o)
                              e:/pic/bin/bin/../../lib/gcc/pic32mx/4.8.3/../../../../pic32mx/lib/./proc/32MX170F256B\default_isr_vectors.o (__vector_dispatch_34)
e:/pic/bin/bin/../../lib/gcc/pic32mx/4.8.3/../../../../pic32mx/lib\libpic32.a(vector35.o)
                              e:/pic/bin/bin/../../lib/gcc/pic32mx/4.8.3/../../../../pic32mx/lib/./proc/32MX170F256B\default_isr_vectors.o (__vector_dispatch_35)
e:/pic/bin/bin/../../lib/gcc/pic32mx/4.8.3/../../../../pic32mx/lib\libpic32.a(vector36.o)
                              e:/pic/bin/bin/../../lib/gcc/pic32mx/4.8.3/../../../../pic32mx/lib/./proc/32MX170F256B\default_isr_vectors.o (__vector_dispatch_36)
e:/pic/bin/bin/../../lib/gcc/pic32mx/4.8.3/../../../../pic32mx/lib\libpic32.a(vector38.o)
                              e:/pic/bin/bin/../../lib/gcc/pic32mx/4.8.3/../../../../pic32mx/lib/./proc/32MX170F256B\default_isr_vectors.o (__vector_dispatch_38)
e:/pic/bin/bin/../../lib/gcc/pic32mx/4.8.3/../../../../pic32mx/lib\libpic32.a(vector39.o)
                              e:/pic/bin/bin/../../lib/gcc/pic32mx/4.8.3/../../../../pic32mx/lib/./proc/32MX170F256B\default_isr_vectors.o (__vector_dispatch_39)
e:/pic/bin/bin/../../lib/gcc/pic32mx/4.8.3/../../../../pic32mx/lib\libpic32.a(vector40.o)
                              e:/pic/bin/bin/../../lib/gcc/pic32mx/4.8.3/../../../../pic32mx/lib/./proc/32MX170F256B\default_isr_vectors.o (__vector_dispatch_40)
e:/pic/bin/bin/../../lib/gcc/pic32mx/4.8.3/../../../../pic32mx/lib\libpic32.a(vector41.o)
                              e:/pic/bin/bin/../../lib/gcc/pic32mx/4.8.3/../../../../pic32mx/lib/./proc/32MX170F256B\default_isr_vectors.o (__vector_dispatch_41)
e:/pic/bin/bin/../../lib/gcc/pic32mx/4.8.3/../../../../pic32mx/lib\libpic32.a(vector42.o)
                              e:/pic/bin/bin/../../lib/gcc/pic32mx/4.8.3/../../../../pic32mx/lib/./proc/32MX170F256B\default_isr_vectors.o (__vector_dispatch_42)
e:/pic/bin/bin/../../lib/gcc/pic32mx/4.8.3/../../../../pic32mx/lib\libpic32.a(vector43.o)
                              e:/pic/bin/bin/../../lib/gcc/pic32mx/4.8.3/../../../../pic32mx/lib/./proc/32MX170F256B\default_isr_vectors.o (__vector_dispatch_43)
e:/pic/bin/bin/../../lib/gcc/pic32mx/4.8.3/../../../../pic32mx/lib\libpic32.a(default-general-exception-handler.o)
                              e:/pic/bin/bin/../../lib/gcc/pic32mx/4.8.3/../../../../pic32mx/lib\libpic32.a(general-exception.o) (_general_exception_handler)
e:/pic/bin/bin/../../lib/gcc/pic32mx/4.8.3/../../../../pic32mx/lib\libpic32.a(defaultinterrupt.o)
                              e:/pic/bin/bin/../../lib/gcc/pic32mx/4.8.3/../../../../pic32mx/lib\libpic32.a(vector0.o) (_DefaultInterrupt)
e:/pic/bin/bin/../../lib/gcc/pic32mx/4.8.3/../../../../pic32mx/lib\liblega-c.a(strncpy.o)
                              build/default/production/MT3339.o (strncpy)
e:/pic/bin/bin/../../lib/gcc/pic32mx/4.8.3/../../../../pic32mx/lib\liblega-c.a(strchr.o)
                              build/default/production/MT3339.o (strchr)
e:/pic/bin/bin/../../lib/gcc/pic32mx/4.8.3/../../../../pic32mx/lib\liblega-c.a(strstr.o)
                              build/default/production/MT3339.o (strstr)
e:/pic/bin/bin/../../lib/gcc/pic32mx/4.8.3/../../../../pic32mx/lib\liblega-c.a(atol.o)
                              build/default/production/MT3339.o (atol)
e:/pic/bin/bin/../../lib/gcc/pic32mx/4.8.3/../../../../pic32mx/lib\liblega-c.a(atoi.o)
                              build/default/production/MT3339.o (atoi)
e:/pic/bin/bin/../../lib/gcc/pic32mx/4.8.3/../../../../pic32mx/lib\liblega-c.a(strtol.o)
                              e:/pic/bin/bin/../../lib/gcc/pic32mx/4.8.3/../../../../pic32mx/lib\liblega-c.a(atol.o) (strtol)
e:/pic/bin/bin/../../lib/gcc/pic32mx/4.8.3/../../../../pic32mx/lib\liblega-c.a(sprintf_cdfFnopuxX.eo)
                              (_sprintf_cdfFnopuxX)
e:/pic/bin/bin/../../lib/gcc/pic32mx/4.8.3/../../../../pic32mx/lib\liblega-c.a(sprintf_cdnopuxX.eo)
                              build/default/production/BNO055.o (_sprintf_cdnopuxX)
e:/pic/bin/bin/../../lib/gcc/pic32mx/4.8.3/../../../../pic32mx/lib\liblega-c.a(sprintf_fF.eo)
                              build/default/production/main.o (_sprintf_fF)
e:/pic/bin/bin/../../lib/gcc/pic32mx/4.8.3/../../../../pic32mx/lib\liblega-c.a(ctype.o)
                              e:/pic/bin/bin/../../lib/gcc/pic32mx/4.8.3/../../../../pic32mx/lib\liblega-c.a(strtol.o) (_ctype)
e:/pic/bin/bin/../../lib/gcc/pic32mx/4.8.3/../../../../pic32mx/lib\liblega-c.a(errno.o)
                              e:/pic/bin/bin/../../lib/gcc/pic32mx/4.8.3/../../../../pic32mx/lib\liblega-c.a(strtol.o) (errno)
e:/pic/bin/bin/../../lib/gcc/pic32mx/4.8.3/../../../../pic32mx/lib\liblega-c.a(_doprnt_cdfFnopuxX.eo)
                              e:/pic/bin/bin/../../lib/gcc/pic32mx/4.8.3/../../../../pic32mx/lib\liblega-c.a(sprintf_cdfFnopuxX.eo) (_do_print_cdfFnopuxX)
e:/pic/bin/bin/../../lib/gcc/pic32mx/4.8.3/../../../../pic32mx/lib\liblega-c.a(_doprnt_cdnopuxX.eo)
                              e:/pic/bin/bin/../../lib/gcc/pic32mx/4.8.3/../../../../pic32mx/lib\liblega-c.a(sprintf_cdnopuxX.eo) (_do_print_cdnopuxX)
e:/pic/bin/bin/../../lib/gcc/pic32mx/4.8.3/../../../../pic32mx/lib\liblega-c.a(_doprnt_fF.eo)
                              e:/pic/bin/bin/../../lib/gcc/pic32mx/4.8.3/../../../../pic32mx/lib\liblega-c.a(sprintf_fF.eo) (_do_print_fF)
e:/pic/bin/bin/../../lib/gcc/pic32mx/4.8.3/../../../../pic32mx/lib\liblega-c.a(_iobdata.o)
                              e:/pic/bin/bin/../../lib/gcc/pic32mx/4.8.3/../../../../pic32mx/lib\liblega-c.a(_doprnt_cdfFnopuxX.eo) (_libc_data)
e:/pic/bin/bin/../../lib/gcc/pic32mx/4.8.3/../../../../pic32mx/lib\liblega-c.a(_iobfuncs.o)
                              e:/pic/bin/bin/../../lib/gcc/pic32mx/4.8.3/../../../../pic32mx/lib\liblega-c.a(_iobdata.o) (_filbuf_simple)
e:/pic/bin/bin/../../lib/gcc/pic32mx/4.8.3/../../../../pic32mx/lib\liblega-c.a(_iobstring.o)
                              e:/pic/bin/bin/../../lib/gcc/pic32mx/4.8.3/../../../../pic32mx/lib\liblega-c.a(sprintf_cdfFnopuxX.eo) (_io_strfuncs)
e:/pic/bin/bin/../../lib/gcc/pic32mx/4.8.3/../../../../pic32mx/lib\liblega-c.a(fputc.o)
                              e:/pic/bin/bin/../../lib/gcc/pic32mx/4.8.3/../../../../pic32mx/lib\liblega-c.a(_doprnt_cdfFnopuxX.eo) (fputc)
e:/pic/bin/bin/../../lib/gcc/pic32mx/4.8.3/../../../../pic32mx/lib\libm.a(dptofp.o)
                              build/default/production/MT3339.o (dptofp)
e:/pic/bin/bin/../../lib/gcc/pic32mx/4.8.3/../../../../pic32mx/lib\libm.a(fp32div.o)
                              build/default/production/ILI9341.o (fpdiv)
e:/pic/bin/bin/../../lib/gcc/pic32mx/4.8.3/../../../../pic32mx/lib\libm.a(fp32mul.o)
                              build/default/production/ILI9341.o (fpmul)
e:/pic/bin/bin/../../lib/gcc/pic32mx/4.8.3/../../../../pic32mx/lib\libm.a(fp32subadd.o)
                              build/default/production/ILI9341.o (fpsub)
e:/pic/bin/bin/../../lib/gcc/pic32mx/4.8.3/../../../../pic32mx/lib\libm.a(fpcmp.o)
                              e:/pic/bin/bin/../../lib/gcc/pic32mx/4.8.3/../../../../pic32mx/lib\liblega-c.a(_doprnt_cdfFnopuxX.eo) (fpcmp)
e:/pic/bin/bin/../../lib/gcc/pic32mx/4.8.3/../../../../pic32mx/lib\libm.a(fpcos32.o)
                              build/default/production/ILI9341.o (cosf)
e:/pic/bin/bin/../../lib/gcc/pic32mx/4.8.3/../../../../pic32mx/lib\libm.a(fpfmod.o)
                              build/default/production/MT3339.o (fmodf)
e:/pic/bin/bin/../../lib/gcc/pic32mx/4.8.3/../../../../pic32mx/lib\libm.a(fpmodf.o)
                              e:/pic/bin/bin/../../lib/gcc/pic32mx/4.8.3/../../../../pic32mx/lib\liblega-c.a(_doprnt_cdfFnopuxX.eo) (modff)
e:/pic/bin/bin/../../lib/gcc/pic32mx/4.8.3/../../../../pic32mx/lib\libm.a(fpreduct32.o)
                              e:/pic/bin/bin/../../lib/gcc/pic32mx/4.8.3/../../../../pic32mx/lib\libm.a(fpcos32.o) (fpreduct)
e:/pic/bin/bin/../../lib/gcc/pic32mx/4.8.3/../../../../pic32mx/lib\libm.a(fpsin32.o)
                              build/default/production/ILI9341.o (sinf)
e:/pic/bin/bin/../../lib/gcc/pic32mx/4.8.3/../../../../pic32mx/lib\libm.a(fptoli.o)
                              build/default/production/BNO055.o (fptosi)
e:/pic/bin/bin/../../lib/gcc/pic32mx/4.8.3/../../../../pic32mx/lib\libm.a(fptoul.o)
                              build/default/production/ILI9341.o (fptoui)
e:/pic/bin/bin/../../lib/gcc/pic32mx/4.8.3/../../../../pic32mx/lib\libm.a(sincof32.o)
                              e:/pic/bin/bin/../../lib/gcc/pic32mx/4.8.3/../../../../pic32mx/lib\libm.a(fpcos32.o) (_sincof)
e:/pic/bin/bin/../../lib/gcc/pic32mx/4.8.3/../../../../pic32mx/lib\libm.a(sitofp.o)
                              build/default/production/BNO055.o (sitofp)
e:/pic/bin/bin/../../lib/gcc/pic32mx/4.8.3/../../../../pic32mx/lib\libm.a(w_asinf.o)
                              build/default/production/MT3339.o (asinf)
e:/pic/bin/bin/../../lib/gcc/pic32mx/4.8.3/../../../../pic32mx/lib\libm.a(w_sqrtf.o)
                              build/default/production/BNO055.o (sqrtf)
e:/pic/bin/bin/../../lib/gcc/pic32mx/4.8.3/../../../../pic32mx/lib\libm.a(__strtod.o)
                              build/default/production/MT3339.o (__strtod)
e:/pic/bin/bin/../../lib/gcc/pic32mx/4.8.3/../../../../pic32mx/lib\libm.a(dp32div.o)
                              e:/pic/bin/bin/../../lib/gcc/pic32mx/4.8.3/../../../../pic32mx/lib\libm.a(__strtod.o) (__divdf3)
e:/pic/bin/bin/../../lib/gcc/pic32mx/4.8.3/../../../../pic32mx/lib\libm.a(dp32mul.o)
                              e:/pic/bin/bin/../../lib/gcc/pic32mx/4.8.3/../../../../pic32mx/lib\libm.a(__strtod.o) (__muldf3)
e:/pic/bin/bin/../../lib/gcc/pic32mx/4.8.3/../../../../pic32mx/lib\libm.a(dp32subadd.o)
                              e:/pic/bin/bin/../../lib/gcc/pic32mx/4.8.3/../../../../pic32mx/lib\libm.a(__strtod.o) (__adddf3)
e:/pic/bin/bin/../../lib/gcc/pic32mx/4.8.3/../../../../pic32mx/lib\libm.a(fpasin.o)
                              e:/pic/bin/bin/../../lib/gcc/pic32mx/4.8.3/../../../../pic32mx/lib\libm.a(w_asinf.o) (__mchp_asinf)
e:/pic/bin/bin/../../lib/gcc/pic32mx/4.8.3/../../../../pic32mx/lib\libm.a(fpexatan.o)
                              e:/pic/bin/bin/../../lib/gcc/pic32mx/4.8.3/../../../../pic32mx/lib\libm.a(fpasin.o) (fpexatan)
e:/pic/bin/bin/../../lib/gcc/pic32mx/4.8.3/../../../../pic32mx/lib\libm.a(fpfabs.o)
                              e:/pic/bin/bin/../../lib/gcc/pic32mx/4.8.3/../../../../pic32mx/lib\libm.a(w_asinf.o) (fabsf)
e:/pic/bin/bin/../../lib/gcc/pic32mx/4.8.3/../../../../pic32mx/lib\libm.a(fpexsqrt32.o)
                              e:/pic/bin/bin/../../lib/gcc/pic32mx/4.8.3/../../../../pic32mx/lib\libm.a(fpasin.o) (fpexsqrt)
e:/pic/bin/bin/../../lib/gcc/pic32mx/4.8.3/../../../../pic32mx/lib\libm.a(fpsqrt32.o)
                              e:/pic/bin/bin/../../lib/gcc/pic32mx/4.8.3/../../../../pic32mx/lib\libm.a(w_sqrtf.o) (__mchp_sqrtf)
e:/pic/bin/bin/../../lib/gcc/pic32mx/4.8.3/../../../../pic32mx/lib\libm.a(litodp.o)
                              e:/pic/bin/bin/../../lib/gcc/pic32mx/4.8.3/../../../../pic32mx/lib\libm.a(__strtod.o) (__floatsidf)
e:/pic/bin/bin/../../lib/gcc/pic32mx/4.8.3/../../../../pic32mx/lib\libm.a(negdf2.o)
                              e:/pic/bin/bin/../../lib/gcc/pic32mx/4.8.3/../../../../pic32mx/lib\libm.a(__strtod.o) (__negdf2)
e:/pic/bin/bin/../../lib/gcc/pic32mx/4.8.3/../../../../pic32mx/lib\libm.a(s_lib_ver.o)
                              e:/pic/bin/bin/../../lib/gcc/pic32mx/4.8.3/../../../../pic32mx/lib\libm.a(w_asinf.o) (math_errhandling)
e:/pic/bin/bin/../../lib/gcc/pic32mx/4.8.3/../../../../pic32mx/lib\libe.a(_ldexp.o)
                              e:/pic/bin/bin/../../lib/gcc/pic32mx/4.8.3/../../../../pic32mx/lib\libm.a(__strtod.o) (__ldexp)
e:/pic/bin/bin/../../lib/gcc/pic32mx/4.8.3\libgcc.a(_lshrdi3.o)
                              e:/pic/bin/bin/../../lib/gcc/pic32mx/4.8.3/../../../../pic32mx/lib\libe.a(_ldexp.o) (__lshrdi3)
e:/pic/bin/bin/../../lib/gcc/pic32mx/4.8.3\libgcc.a(_ashldi3.o)
                              e:/pic/bin/bin/../../lib/gcc/pic32mx/4.8.3/../../../../pic32mx/lib\libe.a(_ldexp.o) (__ashldi3)
e:/pic/bin/bin/../../lib/gcc/pic32mx/4.8.3\libgcc.a(_udivdi3.o)
                              e:/pic/bin/bin/../../lib/gcc/pic32mx/4.8.3/../../../../pic32mx/lib\liblega-c.a(_doprnt_cdfFnopuxX.eo) (__udivdi3)
e:/pic/bin/bin/../../lib/gcc/pic32mx/4.8.3\libgcc.a(_umoddi3.o)
                              e:/pic/bin/bin/../../lib/gcc/pic32mx/4.8.3/../../../../pic32mx/lib\liblega-c.a(_doprnt_cdfFnopuxX.eo) (__umoddi3)
e:/pic/bin/bin/../../lib/gcc/pic32mx/4.8.3/../../../../pic32mx/lib\libpic32.a(_mon_getc.o)
                              e:/pic/bin/bin/../../lib/gcc/pic32mx/4.8.3/../../../../pic32mx/lib\liblega-c.a(_iobfuncs.o) (_mon_getc)
e:/pic/bin/bin/../../lib/gcc/pic32mx/4.8.3/../../../../pic32mx/lib\libpic32.a(_mon_write.o)
                              e:/pic/bin/bin/../../lib/gcc/pic32mx/4.8.3/../../../../pic32mx/lib\liblega-c.a(_iobfuncs.o) (_mon_write)
e:/pic/bin/bin/../../lib/gcc/pic32mx/4.8.3/../../../../pic32mx/lib\libpic32.a(xc32_uart.o)
                              e:/pic/bin/bin/../../lib/gcc/pic32mx/4.8.3/../../../../pic32mx/lib\libpic32.a(_mon_getc.o) (__XC_UART)
e:/pic/bin/bin/../../lib/gcc/pic32mx/4.8.3/../../../../pic32mx/lib\libpic32.a(_mon_putc.o)
                              e:/pic/bin/bin/../../lib/gcc/pic32mx/4.8.3/../../../../pic32mx/lib\libpic32.a(_mon_write.o) (_mon_putc)

Allocating common symbols
Common symbol       size              file

geoidheight         0x4               build/default/production/Interrupts.o
projection          0x4               build/default/production/main.o
NMEA_Buffer_1       0x4f              build/default/production/Interrupts.o
total_distance_r2   0x4               build/default/production/main.o
sum_lin_x           0x4               build/default/production/main.o
gravity_y           0x4               build/default/production/main.o
mag_unit_y          0x4               build/default/production/main.o
fixquality          0x1               build/default/production/Interrupts.o
batteryVolt         0x4               build/default/production/MAX17043.o
y_last              0x4               build/default/production/Interrupts.o
I2C_RX_Buffer       0x1e              build/default/production/I2C_new.o
font                0x4               build/default/production/ILI9341.o
nmea_index          0x4               build/default/production/Interrupts.o
last_distance_z     0x4               build/default/production/main.o
acc_y               0x4               build/default/production/main.o
_deviceAddress      0x1               build/default/production/BQ27441.o
NMEA_Enable         0x1               build/default/production/Interrupts.o
flag                0x2               build/default/production/main.o
mag_x               0x4               build/default/production/main.o
magvariation        0x4               build/default/production/Interrupts.o
month               0x1               build/default/production/Interrupts.o
Xfer_Buff_Full      0x1               build/default/production/Interrupts.o
eul_pitch           0x4               build/default/production/main.o
mag_unit_z          0x4               build/default/production/main.o
eul_roll            0x4               build/default/production/main.o
NMEA_Flag           0x1               build/default/production/Interrupts.o
gravity_z           0x4               build/default/production/main.o
magnitude           0x4               build/default/production/main.o
NMEA_Xfer_Buff      0x4f              build/default/production/Interrupts.o
rx                  0x1               build/default/production/SPI.o
distance            0x4               build/default/production/main.o
_userConfigControl  0x1               build/default/production/BQ27441.o
debug_buff          0xa               build/default/production/Interrupts.o
minute              0x1               build/default/production/Interrupts.o
gyr_x               0x4               build/default/production/main.o
gyr_z               0x4               build/default/production/main.o
correction_vector_z
                    0x4               build/default/production/main.o
sum_lin_z           0x4               build/default/production/main.o
buffer_1            0x3c              build/default/production/main.o
i                   0x2               build/default/production/main.o
font2               0x4               build/default/production/ILI9341.o
mag_y               0x4               build/default/production/main.o
eul_heading         0x4               build/default/production/main.o
latitude_fixed      0x4               build/default/production/Interrupts.o
milliseconds        0x2               build/default/production/Interrupts.o
correction_vector_x
                    0x4               build/default/production/main.o
lower_index         0x4               build/default/production/Interrupts.o
c                   0x1               build/default/production/main.o
gyr_y               0x4               build/default/production/main.o
hour                0x1               build/default/production/Interrupts.o
angle               0x4               build/default/production/Interrupts.o
lon                 0x1               build/default/production/Interrupts.o
_sealFlag           0x1               build/default/production/BQ27441.o
longitude           0x4               build/default/production/Interrupts.o
lin_acc_x           0x4               build/default/production/main.o
satellites          0x1               build/default/production/Interrupts.o
altitude            0x4               build/default/production/Interrupts.o
correction_vector_y
                    0x4               build/default/production/main.o
gravity_x           0x4               build/default/production/main.o
longitude_fixed     0x4               build/default/production/Interrupts.o
Recieve_Buffer      0x40              build/default/production/main.o
seconds             0x1               build/default/production/Interrupts.o
mag_z               0x4               build/default/production/main.o
fix                 0x1               build/default/production/Interrupts.o
batteryPer          0x4               build/default/production/MAX17043.o
NMEA_State          0x1               build/default/production/Interrupts.o
longitudeDegrees    0x4               build/default/production/Interrupts.o
acc_count           0x4               build/default/production/main.o
x_last              0x4               build/default/production/Interrupts.o
last_distance_x     0x4               build/default/production/main.o
latitudeDegrees     0x4               build/default/production/Interrupts.o
year                0x1               build/default/production/Interrupts.o
newGPRMC            0x28              build/default/production/MT3339.o
latitude            0x4               build/default/production/Interrupts.o
mag_unit_x          0x4               build/default/production/main.o
day                 0x1               build/default/production/Interrupts.o
speed               0x4               build/default/production/Interrupts.o
acc_x               0x4               build/default/production/main.o
Buffer              0x4               build/default/production/main.o
lin_acc_y           0x4               build/default/production/main.o
lin_acc_z           0x4               build/default/production/main.o
rx_nmea             0x1               build/default/production/Interrupts.o
newGPGGA            0x34              build/default/production/MT3339.o
letter_spacing      0x1               build/default/production/ILI9341.o
sum_lin_y           0x4               build/default/production/main.o
last_distance_y     0x4               build/default/production/main.o
HDOP                0x4               build/default/production/Interrupts.o
lat                 0x1               build/default/production/Interrupts.o
heading_Buffer      0xe               build/default/production/main.o
mag                 0x1               build/default/production/Interrupts.o
acc_z               0x4               build/default/production/main.o
height              0x1               build/default/production/ILI9341.o
upper_index         0x4               build/default/production/Interrupts.o
width               0x1               build/default/production/ILI9341.o
heading             0x4               build/default/production/main.o

Microchip PIC32 Memory-Usage Report

kseg0 Program-Memory Usage
section                    address  length [bytes]      (dec)  Description
-------                 ----------  -------------------------  -----------
.text                   0x9d000000         0x5084       20612  App's exec code 
.text                   0x9d005084         0x13d0        5072  App's exec code 
.rodata                 0x9d006454         0x1350        4944  Read-only const 
.text                   0x9d0077a4         0x1c70        7280  App's exec code 
.text._do_print_cdfFnop 0x9d009414          0xab4        2740   
.text                   0x9d009ec8          0x650        1616  App's exec code 
.text._fconvert         0x9d00a518          0x5e0        1504   
.text                   0x9d00aaf8          0x524        1316  App's exec code 
.text.dp32mul           0x9d00b01c          0x4b8        1208   
.text                   0x9d00b4d4          0x8f4        2292  App's exec code 
.text                   0x9d00bdc8          0x458        1112  App's exec code 
.text.dp32subadd        0x9d00c220          0x430        1072   
.text.__strtod          0x9d00c650          0x3d0         976   
.dinit                  0x9d00ca20          0x3a0         928   
.text.libm              0x9d00cdc0          0x350         848   
.text.dp32mul           0x9d00d110          0x32c         812   
.text                   0x9d00d43c          0x5b4        1460  App's exec code 
.text.strtol            0x9d00d9f0          0x27c         636   
.text.fpsubadd          0x9d00dc6c          0x278         632   
.text.fp32div           0x9d00dee4          0x230         560   
.text.libm              0x9d00e114          0x1dc         476   
.text                   0x9d00e2f0          0x398         920  App's exec code 
.text.fp32mul           0x9d00e688          0x1bc         444   
.text.libm              0x9d00e844          0x1ac         428   
.text.__ldexp           0x9d00e9f0          0x1a8         424   
.text                   0x9d00eb98          0x2d0         720  App's exec code 
.text.libm              0x9d00ee68          0x148         328   
.text._outcnvrt         0x9d00efb0          0x13c         316   
.text.libm              0x9d00f0ec          0x234         564   
.text.libm              0x9d00f320          0x10c         268   
.rodata                 0x9d00f42c          0x104         260  Read-only const 
.text.strncpy           0x9d00f530          0x100         256   
.text.dptofp            0x9d00f630          0x100         256   
.text._flsbuf_simple    0x9d00f730           0xfc         252   
.text.libm.fpexsqrt     0x9d00f82c           0xfc         252   
.text                   0x9d00f928           0xf4         244  App's exec code 
.text.strchr            0x9d00fa1c           0xf4         244   
.text._mon_getc         0x9d00fb10           0xe4         228   
.text.general_exception 0x9d00fbf4           0xdc         220   
.text.libm              0x9d00fcd0           0xd4         212   
.text._mon_putc         0x9d00fda4           0xd4         212   
.rodata                 0x9d00fe78           0xc8         200  Read-only const 
.text.fputc             0x9d00ff40           0xac         172   
.text                   0x9d00ffec           0xa8         168  App's exec code 
.text.repl              0x9d010094           0x9c         156   
.text.fpcmp             0x9d010130           0x9c         156   
.text                   0x9d0101cc           0x84         132  App's exec code 
.text._fflush_simple    0x9d010250           0x80         128   
.text._fwrite_simple    0x9d0102d0           0x80         128   
.text.fptoli            0x9d010350           0x80         128   
.text.fptoul            0x9d0103d0           0x7c         124   
.text.asinf             0x9d01044c           0x7c         124   
.text.litodp            0x9d0104c8           0x78         120   
.text.strstr            0x9d010540           0x74         116   
.text._sprintf_cdfFnopu 0x9d0105b4           0x6c         108   
.text.__sputn           0x9d010620           0x68         104   
.rodata                 0x9d010688           0x68         104  Read-only const 
.text.sqrtf             0x9d0106f0           0x68         104   
.text.sitofp            0x9d010758           0x60          96   
.text.main_entry        0x9d0107b8           0x54          84   
.text                   0x9d01080c           0x4c          76  App's exec code 
.text._mon_write        0x9d010858           0x4c          76   
.text._bootstrap_except 0x9d0108a4           0x48          72   
.text._general_exceptio 0x9d0108ec           0x48          72   
.vector_default         0x9d010934           0x48          72   
.rodata                 0x9d01097c           0x48          72  Read-only const 
.text                   0x9d0109c4           0x84         132  App's exec code 
.text                   0x9d010a48           0x40          64  App's exec code 
.text._filbuf_simple    0x9d010a88           0x34          52   
.rodata                 0x9d010abc           0x30          48  Read-only const 
.text._fsync_simple     0x9d010aec           0x30          48   
.text.putchar           0x9d010b1c           0x24          36   
.text.atol              0x9d010b40           0x20          32   
.text.atoi              0x9d010b60           0x20          32   
.text._vfprintf_cdfFnop 0x9d010b80           0x1c          28   
.text.putc              0x9d010b9c           0x1c          28   
.text.negdf2            0x9d010bb8           0x1c          28   
.rodata                 0x9d010bd4           0x18          24  Read-only const 
.text                   0x9d010bec           0x18          24  App's exec code 
.text._io_exit          0x9d010c04           0x14          20   
.rodata                 0x9d010c18           0x14          20  Read-only const 
.text._io_exit          0x9d010c2c           0x14          20   
.rodata                 0x9d010c40           0x14          20  Read-only const 
.text.fpfabs            0x9d010c54           0x14          20   
.text._on_reset         0x9d010c68            0x8           8   
.text._on_bootstrap     0x9d010c70            0x8           8   
.text._filbuf_string    0x9d010c78            0x8           8   
.text._flsbuf_string    0x9d010c80            0x8           8   
.text._fflush_string    0x9d010c88            0x8           8   
.text._fwrite_string    0x9d010c90            0x8           8   
.text._fsync_string     0x9d010c98            0x8           8   
.rodata                 0x9d010ca0            0x4           4  Read-only const 
      Total kseg0_program_mem used  :     0x10ca4       68772  26.7% of 0x3f000

kseg0 Boot-Memory Usage
section                    address  length [bytes]      (dec)  Description
-------                 ----------  -------------------------  -----------
         Total kseg0_boot_mem used  :           0           0  

Exception-Memory Usage 
section                    address  length [bytes]      (dec)  Description
-------                 ----------  -------------------------  -----------
.app_excpt              0x9d03f180           0x10          16  General-Exception 
.vector_0               0x9d03f200            0x8           8  Interrupt Vector 0 
.vector_1               0x9d03f220            0x8           8  Interrupt Vector 1 
.vector_2               0x9d03f240            0x8           8  Interrupt Vector 2 
.vector_3               0x9d03f260            0x8           8  Interrupt Vector 3 
.vector_4               0x9d03f280            0x8           8  Interrupt Vector 4 
.vector_5               0x9d03f2a0            0x8           8  Interrupt Vector 5 
.vector_6               0x9d03f2c0            0x8           8  Interrupt Vector 6 
.vector_7               0x9d03f2e0            0x8           8  Interrupt Vector 7 
.vector_8               0x9d03f300            0x8           8  Interrupt Vector 8 
.vector_9               0x9d03f320            0x8           8  Interrupt Vector 9 
.vector_10              0x9d03f340            0x8           8  Interrupt Vector 10 
.vector_11              0x9d03f360            0x8           8  Interrupt Vector 11 
.vector_12              0x9d03f380            0x8           8  Interrupt Vector 12 
.vector_13              0x9d03f3a0            0x8           8  Interrupt Vector 13 
.vector_14              0x9d03f3c0            0x8           8  Interrupt Vector 14 
.vector_15              0x9d03f3e0            0x8           8  Interrupt Vector 15 
.vector_16              0x9d03f400            0x8           8  Interrupt Vector 16 
.vector_17              0x9d03f420            0x8           8  Interrupt Vector 17 
.vector_18              0x9d03f440            0x8           8  Interrupt Vector 18 
.vector_19              0x9d03f460            0x8           8  Interrupt Vector 19 
.vector_20              0x9d03f480            0x8           8  Interrupt Vector 20 
.vector_21              0x9d03f4a0            0x8           8  Interrupt Vector 21 
.vector_22              0x9d03f4c0            0x8           8  Interrupt Vector 22 
.vector_23              0x9d03f4e0            0x8           8  Interrupt Vector 23 
.vector_24              0x9d03f500            0x8           8  Interrupt Vector 24 
.vector_25              0x9d03f520            0x8           8  Interrupt Vector 25 
.vector_26              0x9d03f540            0x8           8  Interrupt Vector 26 
.vector_27              0x9d03f560            0x8           8  Interrupt Vector 27 
.vector_28              0x9d03f580            0x8           8  Interrupt Vector 28 
.vector_29              0x9d03f5a0            0x8           8  Interrupt Vector 29 
.vector_30              0x9d03f5c0            0x8           8  Interrupt Vector 30 
.vector_31              0x9d03f5e0            0x8           8  Interrupt Vector 31 
.vector_32              0x9d03f600            0x8           8  Interrupt Vector 32 
.vector_33              0x9d03f620            0x8           8  Interrupt Vector 33 
.vector_34              0x9d03f640            0x8           8  Interrupt Vector 34 
.vector_35              0x9d03f660            0x8           8  Interrupt Vector 35 
.vector_36              0x9d03f680            0x8           8  Interrupt Vector 36 
.vector_37              0x9d03f6a0            0x8           8  Interrupt Vector 37 
.vector_38              0x9d03f6c0            0x8           8  Interrupt Vector 38 
.vector_39              0x9d03f6e0            0x8           8  Interrupt Vector 39 
.vector_40              0x9d03f700            0x8           8  Interrupt Vector 40 
.vector_41              0x9d03f720            0x8           8  Interrupt Vector 41 
.vector_42              0x9d03f740            0x8           8  Interrupt Vector 42 
.vector_43              0x9d03f760            0x8           8  Interrupt Vector 43 
          Total exception_mem used  :       0x170         368  9.0% of 0x1000

kseg1 Boot-Memory Usage
section                    address  length [bytes]      (dec)  Description
-------                 ----------  -------------------------  -----------
.reset                  0xbfc00000          0x184         388  Reset handler 
.bev_excpt              0xbfc00380           0x10          16  BEV-Exception 
         Total kseg1_boot_mem used  :       0x194         404  34.6% of 0x490
        --------------------------------------------------------------------------
         Total Program Memory used  :     0x10fa8       69544  26.4% of 0x40490
        --------------------------------------------------------------------------


kseg1 Data-Memory Usage
section                    address  length [bytes]      (dec)  Description
-------                 ----------  -------------------------  -----------
.sdata                  0xa0000000           0x28          40  Small init data 
.sbss                   0xa0000028          0x1bc         444  Small uninit data 
.bss                    0xa00001e4          0x1b4         436  Uninitialized data 
.data                   0xa0000398          0x1d4         468  Initialized data 
.bss                    0xa000056c           0x88         136  Uninitialized data 
.data                   0xa00005f4           0x50          80  Initialized data 
.data.math_errhandling_ 0xa0000644            0x4           4   
         Total kseg1_data_mem used  :       0x648        1608  2.5% of 0x10000
        --------------------------------------------------------------------------
            Total Data Memory used  :       0x648        1608  2.5% of 0x10000
        --------------------------------------------------------------------------


Dynamic Data-Memory Reservation
section                    address  length [bytes]      (dec)  Description
-------                 ----------  -------------------------  -----------
heap                    0xa0000650          0x400        1024  Reserved for heap 
stack                   0xa0000a68         0xf590       62864  Reserved for stack 

        --------------------------------------------------------------------------

Discarded input sections

 .reginfo       0x00000000       0x18 e:/pic/bin/bin/../../lib/gcc/pic32mx/4.8.3/../../../../pic32mx/lib\debug-exception-return.o
 .reginfo       0x00000000       0x18 build/default/production/CONFIG.o
 .reginfo       0x00000000       0x18 build/default/production/Interrupts.o
 .reginfo       0x00000000       0x18 build/default/production/main.o
 .reginfo       0x00000000       0x18 build/default/production/I2C.o
 .reginfo       0x00000000       0x18 build/default/production/SPI.o
 .reginfo       0x00000000       0x18 build/default/production/ILI9341.o
 .reginfo       0x00000000       0x18 build/default/production/EUSART.o
 .reginfo       0x00000000       0x18 build/default/production/Delay.o
 .reginfo       0x00000000       0x18 build/default/production/BNO055.o
 .reginfo       0x00000000       0x18 build/default/production/MT3339.o
 .reginfo       0x00000000       0x18 build/default/production/MAX17043.o
 .reginfo       0x00000000       0x18 build/default/production/BQ27441.o
 .reginfo       0x00000000       0x18 build/default/production/I2C_new.o
 .reginfo       0x00000000       0x18 e:/pic/bin/bin/../../lib/gcc/pic32mx/4.8.3/../../../../pic32mx/lib/./proc/32MX170F256B\default_isr_vectors.o
 .discard       0x00000000       0xb0 e:/pic/bin/bin/../../lib/gcc/pic32mx/4.8.3/../../../../pic32mx/lib/./proc/32MX170F256B\default_isr_vectors.o
 .reginfo       0x00000000       0x18 e:/pic/bin/bin/../../lib/gcc/pic32mx/4.8.3/../../../../pic32mx/lib\pic32_software_reset.o
 .reginfo       0x00000000       0x18 e:/pic/bin/bin/../../lib/gcc/pic32mx/4.8.3/../../../../pic32mx/lib/./proc/32MX170F256B\processor.o
 .reginfo       0x00000000       0x18 e:/pic/bin/bin/../../lib/gcc/pic32mx/4.8.3\libgcc.a(floatunsisf.o)
 .reginfo       0x00000000       0x18 e:/pic/bin/bin/../../lib/gcc/pic32mx/4.8.3/../../../../pic32mx/lib\libpic32.a(memcpy.o)
 .reginfo       0x00000000       0x18 e:/pic/bin/bin/../../lib/gcc/pic32mx/4.8.3/../../../../pic32mx/lib\libpic32.a(memset.o)
 .reginfo       0x00000000       0x18 e:/pic/bin/bin/../../lib/gcc/pic32mx/4.8.3/../../../../pic32mx/lib\libpic32.a(strlen.o)
 .reginfo       0x00000000       0x18 e:/pic/bin/bin/../../lib/gcc/pic32mx/4.8.3/../../../../pic32mx/lib\libpic32.a(default-bootstrap-exception-handler.o)
 .reginfo       0x00000000       0x18 e:/pic/bin/bin/../../lib/gcc/pic32mx/4.8.3/../../../../pic32mx/lib\libpic32.a(default-on-reset.o)
 .reginfo       0x00000000       0x18 e:/pic/bin/bin/../../lib/gcc/pic32mx/4.8.3/../../../../pic32mx/lib\libpic32.a(default-on-bootstrap.o)
 .reginfo       0x00000000       0x18 e:/pic/bin/bin/../../lib/gcc/pic32mx/4.8.3/../../../../pic32mx/lib\libpic32.a(default-nmi-handler.o)
 .reginfo       0x00000000       0x18 e:/pic/bin/bin/../../lib/gcc/pic32mx/4.8.3/../../../../pic32mx/lib\libpic32.a(pic32_data_init.o)
 .reginfo       0x00000000       0x18 e:/pic/bin/bin/../../lib/gcc/pic32mx/4.8.3/../../../../pic32mx/lib\libpic32.a(general-exception.o)
 .reginfo       0x00000000       0x18 e:/pic/bin/bin/../../lib/gcc/pic32mx/4.8.3/../../../../pic32mx/lib\libpic32.a(vector0.o)
 .reginfo       0x00000000       0x18 e:/pic/bin/bin/../../lib/gcc/pic32mx/4.8.3/../../../../pic32mx/lib\libpic32.a(vector1.o)
 .reginfo       0x00000000       0x18 e:/pic/bin/bin/../../lib/gcc/pic32mx/4.8.3/../../../../pic32mx/lib\libpic32.a(vector2.o)
 .reginfo       0x00000000       0x18 e:/pic/bin/bin/../../lib/gcc/pic32mx/4.8.3/../../../../pic32mx/lib\libpic32.a(vector3.o)
 .reginfo       0x00000000       0x18 e:/pic/bin/bin/../../lib/gcc/pic32mx/4.8.3/../../../../pic32mx/lib\libpic32.a(vector4.o)
 .reginfo       0x00000000       0x18 e:/pic/bin/bin/../../lib/gcc/pic32mx/4.8.3/../../../../pic32mx/lib\libpic32.a(vector5.o)
 .reginfo       0x00000000       0x18 e:/pic/bin/bin/../../lib/gcc/pic32mx/4.8.3/../../../../pic32mx/lib\libpic32.a(vector6.o)
 .reginfo       0x00000000       0x18 e:/pic/bin/bin/../../lib/gcc/pic32mx/4.8.3/../../../../pic32mx/lib\libpic32.a(vector7.o)
 .reginfo       0x00000000       0x18 e:/pic/bin/bin/../../lib/gcc/pic32mx/4.8.3/../../../../pic32mx/lib\libpic32.a(vector8.o)
 .reginfo       0x00000000       0x18 e:/pic/bin/bin/../../lib/gcc/pic32mx/4.8.3/../../../../pic32mx/lib\libpic32.a(vector9.o)
 .reginfo       0x00000000       0x18 e:/pic/bin/bin/../../lib/gcc/pic32mx/4.8.3/../../../../pic32mx/lib\libpic32.a(vector10.o)
 .reginfo       0x00000000       0x18 e:/pic/bin/bin/../../lib/gcc/pic32mx/4.8.3/../../../../pic32mx/lib\libpic32.a(vector11.o)
 .reginfo       0x00000000       0x18 e:/pic/bin/bin/../../lib/gcc/pic32mx/4.8.3/../../../../pic32mx/lib\libpic32.a(vector12.o)
 .reginfo       0x00000000       0x18 e:/pic/bin/bin/../../lib/gcc/pic32mx/4.8.3/../../../../pic32mx/lib\libpic32.a(vector13.o)
 .reginfo       0x00000000       0x18 e:/pic/bin/bin/../../lib/gcc/pic32mx/4.8.3/../../../../pic32mx/lib\libpic32.a(vector14.o)
 .reginfo       0x00000000       0x18 e:/pic/bin/bin/../../lib/gcc/pic32mx/4.8.3/../../../../pic32mx/lib\libpic32.a(vector15.o)
 .reginfo       0x00000000       0x18 e:/pic/bin/bin/../../lib/gcc/pic32mx/4.8.3/../../../../pic32mx/lib\libpic32.a(vector16.o)
 .reginfo       0x00000000       0x18 e:/pic/bin/bin/../../lib/gcc/pic32mx/4.8.3/../../../../pic32mx/lib\libpic32.a(vector17.o)
 .reginfo       0x00000000       0x18 e:/pic/bin/bin/../../lib/gcc/pic32mx/4.8.3/../../../../pic32mx/lib\libpic32.a(vector18.o)
 .reginfo       0x00000000       0x18 e:/pic/bin/bin/../../lib/gcc/pic32mx/4.8.3/../../../../pic32mx/lib\libpic32.a(vector19.o)
 .reginfo       0x00000000       0x18 e:/pic/bin/bin/../../lib/gcc/pic32mx/4.8.3/../../../../pic32mx/lib\libpic32.a(vector20.o)
 .reginfo       0x00000000       0x18 e:/pic/bin/bin/../../lib/gcc/pic32mx/4.8.3/../../../../pic32mx/lib\libpic32.a(vector21.o)
 .reginfo       0x00000000       0x18 e:/pic/bin/bin/../../lib/gcc/pic32mx/4.8.3/../../../../pic32mx/lib\libpic32.a(vector22.o)
 .reginfo       0x00000000       0x18 e:/pic/bin/bin/../../lib/gcc/pic32mx/4.8.3/../../../../pic32mx/lib\libpic32.a(vector23.o)
 .reginfo       0x00000000       0x18 e:/pic/bin/bin/../../lib/gcc/pic32mx/4.8.3/../../../../pic32mx/lib\libpic32.a(vector24.o)
 .reginfo       0x00000000       0x18 e:/pic/bin/bin/../../lib/gcc/pic32mx/4.8.3/../../../../pic32mx/lib\libpic32.a(vector25.o)
 .reginfo       0x00000000       0x18 e:/pic/bin/bin/../../lib/gcc/pic32mx/4.8.3/../../../../pic32mx/lib\libpic32.a(vector26.o)
 .reginfo       0x00000000       0x18 e:/pic/bin/bin/../../lib/gcc/pic32mx/4.8.3/../../../../pic32mx/lib\libpic32.a(vector27.o)
 .reginfo       0x00000000       0x18 e:/pic/bin/bin/../../lib/gcc/pic32mx/4.8.3/../../../../pic32mx/lib\libpic32.a(vector28.o)
 .reginfo       0x00000000       0x18 e:/pic/bin/bin/../../lib/gcc/pic32mx/4.8.3/../../../../pic32mx/lib\libpic32.a(vector29.o)
 .reginfo       0x00000000       0x18 e:/pic/bin/bin/../../lib/gcc/pic32mx/4.8.3/../../../../pic32mx/lib\libpic32.a(vector30.o)
 .reginfo       0x00000000       0x18 e:/pic/bin/bin/../../lib/gcc/pic32mx/4.8.3/../../../../pic32mx/lib\libpic32.a(vector31.o)
 .reginfo       0x00000000       0x18 e:/pic/bin/bin/../../lib/gcc/pic32mx/4.8.3/../../../../pic32mx/lib\libpic32.a(vector33.o)
 .reginfo       0x00000000       0x18 e:/pic/bin/bin/../../lib/gcc/pic32mx/4.8.3/../../../../pic32mx/lib\libpic32.a(vector34.o)
 .reginfo       0x00000000       0x18 e:/pic/bin/bin/../../lib/gcc/pic32mx/4.8.3/../../../../pic32mx/lib\libpic32.a(vector35.o)
 .reginfo       0x00000000       0x18 e:/pic/bin/bin/../../lib/gcc/pic32mx/4.8.3/../../../../pic32mx/lib\libpic32.a(vector36.o)
 .reginfo       0x00000000       0x18 e:/pic/bin/bin/../../lib/gcc/pic32mx/4.8.3/../../../../pic32mx/lib\libpic32.a(vector38.o)
 .reginfo       0x00000000       0x18 e:/pic/bin/bin/../../lib/gcc/pic32mx/4.8.3/../../../../pic32mx/lib\libpic32.a(vector39.o)
 .reginfo       0x00000000       0x18 e:/pic/bin/bin/../../lib/gcc/pic32mx/4.8.3/../../../../pic32mx/lib\libpic32.a(vector40.o)
 .reginfo       0x00000000       0x18 e:/pic/bin/bin/../../lib/gcc/pic32mx/4.8.3/../../../../pic32mx/lib\libpic32.a(vector41.o)
 .reginfo       0x00000000       0x18 e:/pic/bin/bin/../../lib/gcc/pic32mx/4.8.3/../../../../pic32mx/lib\libpic32.a(vector42.o)
 .reginfo       0x00000000       0x18 e:/pic/bin/bin/../../lib/gcc/pic32mx/4.8.3/../../../../pic32mx/lib\libpic32.a(vector43.o)
 .reginfo       0x00000000       0x18 e:/pic/bin/bin/../../lib/gcc/pic32mx/4.8.3/../../../../pic32mx/lib\libpic32.a(default-general-exception-handler.o)
 .reginfo       0x00000000       0x18 e:/pic/bin/bin/../../lib/gcc/pic32mx/4.8.3/../../../../pic32mx/lib\libpic32.a(defaultinterrupt.o)
 .reginfo       0x00000000       0x18 e:/pic/bin/bin/../../lib/gcc/pic32mx/4.8.3/../../../../pic32mx/lib\liblega-c.a(strncpy.o)
 .reginfo       0x00000000       0x18 e:/pic/bin/bin/../../lib/gcc/pic32mx/4.8.3/../../../../pic32mx/lib\liblega-c.a(strchr.o)
 .reginfo       0x00000000       0x18 e:/pic/bin/bin/../../lib/gcc/pic32mx/4.8.3/../../../../pic32mx/lib\liblega-c.a(strstr.o)
 .reginfo       0x00000000       0x18 e:/pic/bin/bin/../../lib/gcc/pic32mx/4.8.3/../../../../pic32mx/lib\liblega-c.a(atol.o)
 .reginfo       0x00000000       0x18 e:/pic/bin/bin/../../lib/gcc/pic32mx/4.8.3/../../../../pic32mx/lib\liblega-c.a(atoi.o)
 .reginfo       0x00000000       0x18 e:/pic/bin/bin/../../lib/gcc/pic32mx/4.8.3/../../../../pic32mx/lib\liblega-c.a(strtol.o)
 .reginfo       0x00000000       0x18 e:/pic/bin/bin/../../lib/gcc/pic32mx/4.8.3/../../../../pic32mx/lib\liblega-c.a(sprintf_cdfFnopuxX.eo)
 .reginfo       0x00000000       0x18 e:/pic/bin/bin/../../lib/gcc/pic32mx/4.8.3/../../../../pic32mx/lib\liblega-c.a(ctype.o)
 .reginfo       0x00000000       0x18 e:/pic/bin/bin/../../lib/gcc/pic32mx/4.8.3/../../../../pic32mx/lib\liblega-c.a(errno.o)
 .reginfo       0x00000000       0x18 e:/pic/bin/bin/../../lib/gcc/pic32mx/4.8.3/../../../../pic32mx/lib\liblega-c.a(_doprnt_cdfFnopuxX.eo)
 .reginfo       0x00000000       0x18 e:/pic/bin/bin/../../lib/gcc/pic32mx/4.8.3/../../../../pic32mx/lib\liblega-c.a(_iobdata.o)
 .reginfo       0x00000000       0x18 e:/pic/bin/bin/../../lib/gcc/pic32mx/4.8.3/../../../../pic32mx/lib\liblega-c.a(_iobfuncs.o)
 .reginfo       0x00000000       0x18 e:/pic/bin/bin/../../lib/gcc/pic32mx/4.8.3/../../../../pic32mx/lib\liblega-c.a(_iobstring.o)
 .reginfo       0x00000000       0x18 e:/pic/bin/bin/../../lib/gcc/pic32mx/4.8.3/../../../../pic32mx/lib\liblega-c.a(fputc.o)
 .reginfo       0x00000000       0x18 e:/pic/bin/bin/../../lib/gcc/pic32mx/4.8.3/../../../../pic32mx/lib\libm.a(dptofp.o)
 .reginfo       0x00000000       0x18 e:/pic/bin/bin/../../lib/gcc/pic32mx/4.8.3/../../../../pic32mx/lib\libm.a(fp32div.o)
 .reginfo       0x00000000       0x18 e:/pic/bin/bin/../../lib/gcc/pic32mx/4.8.3/../../../../pic32mx/lib\libm.a(fp32mul.o)
 .reginfo       0x00000000       0x18 e:/pic/bin/bin/../../lib/gcc/pic32mx/4.8.3/../../../../pic32mx/lib\libm.a(fp32subadd.o)
 .reginfo       0x00000000       0x18 e:/pic/bin/bin/../../lib/gcc/pic32mx/4.8.3/../../../../pic32mx/lib\libm.a(fpcmp.o)
 .reginfo       0x00000000       0x18 e:/pic/bin/bin/../../lib/gcc/pic32mx/4.8.3/../../../../pic32mx/lib\libm.a(fpcos32.o)
 .reginfo       0x00000000       0x18 e:/pic/bin/bin/../../lib/gcc/pic32mx/4.8.3/../../../../pic32mx/lib\libm.a(fpfmod.o)
 .reginfo       0x00000000       0x18 e:/pic/bin/bin/../../lib/gcc/pic32mx/4.8.3/../../../../pic32mx/lib\libm.a(fpmodf.o)
 .reginfo       0x00000000       0x18 e:/pic/bin/bin/../../lib/gcc/pic32mx/4.8.3/../../../../pic32mx/lib\libm.a(fpreduct32.o)
 .reginfo       0x00000000       0x18 e:/pic/bin/bin/../../lib/gcc/pic32mx/4.8.3/../../../../pic32mx/lib\libm.a(fpsin32.o)
 .reginfo       0x00000000       0x18 e:/pic/bin/bin/../../lib/gcc/pic32mx/4.8.3/../../../../pic32mx/lib\libm.a(fptoli.o)
 .reginfo       0x00000000       0x18 e:/pic/bin/bin/../../lib/gcc/pic32mx/4.8.3/../../../../pic32mx/lib\libm.a(fptoul.o)
 .reginfo       0x00000000       0x18 e:/pic/bin/bin/../../lib/gcc/pic32mx/4.8.3/../../../../pic32mx/lib\libm.a(sincof32.o)
 .reginfo       0x00000000       0x18 e:/pic/bin/bin/../../lib/gcc/pic32mx/4.8.3/../../../../pic32mx/lib\libm.a(sitofp.o)
 .reginfo       0x00000000       0x18 e:/pic/bin/bin/../../lib/gcc/pic32mx/4.8.3/../../../../pic32mx/lib\libm.a(w_asinf.o)
 .reginfo       0x00000000       0x18 e:/pic/bin/bin/../../lib/gcc/pic32mx/4.8.3/../../../../pic32mx/lib\libm.a(w_sqrtf.o)
 .reginfo       0x00000000       0x18 e:/pic/bin/bin/../../lib/gcc/pic32mx/4.8.3/../../../../pic32mx/lib\libm.a(__strtod.o)
 .reginfo       0x00000000       0x18 e:/pic/bin/bin/../../lib/gcc/pic32mx/4.8.3/../../../../pic32mx/lib\libm.a(dp32div.o)
 .reginfo       0x00000000       0x18 e:/pic/bin/bin/../../lib/gcc/pic32mx/4.8.3/../../../../pic32mx/lib\libm.a(dp32mul.o)
 .reginfo       0x00000000       0x18 e:/pic/bin/bin/../../lib/gcc/pic32mx/4.8.3/../../../../pic32mx/lib\libm.a(dp32subadd.o)
 .reginfo       0x00000000       0x18 e:/pic/bin/bin/../../lib/gcc/pic32mx/4.8.3/../../../../pic32mx/lib\libm.a(fpasin.o)
 .reginfo       0x00000000       0x18 e:/pic/bin/bin/../../lib/gcc/pic32mx/4.8.3/../../../../pic32mx/lib\libm.a(fpexatan.o)
 .reginfo       0x00000000       0x18 e:/pic/bin/bin/../../lib/gcc/pic32mx/4.8.3/../../../../pic32mx/lib\libm.a(fpfabs.o)
 .reginfo       0x00000000       0x18 e:/pic/bin/bin/../../lib/gcc/pic32mx/4.8.3/../../../../pic32mx/lib\libm.a(fpexsqrt32.o)
 .reginfo       0x00000000       0x18 e:/pic/bin/bin/../../lib/gcc/pic32mx/4.8.3/../../../../pic32mx/lib\libm.a(fpsqrt32.o)
 .reginfo       0x00000000       0x18 e:/pic/bin/bin/../../lib/gcc/pic32mx/4.8.3/../../../../pic32mx/lib\libm.a(litodp.o)
 .reginfo       0x00000000       0x18 e:/pic/bin/bin/../../lib/gcc/pic32mx/4.8.3/../../../../pic32mx/lib\libm.a(negdf2.o)
 .reginfo       0x00000000       0x18 e:/pic/bin/bin/../../lib/gcc/pic32mx/4.8.3/../../../../pic32mx/lib\libm.a(s_lib_ver.o)
 .reginfo       0x00000000       0x18 e:/pic/bin/bin/../../lib/gcc/pic32mx/4.8.3/../../../../pic32mx/lib\libe.a(_ldexp.o)
 .reginfo       0x00000000       0x18 e:/pic/bin/bin/../../lib/gcc/pic32mx/4.8.3\libgcc.a(_lshrdi3.o)
 .reginfo       0x00000000       0x18 e:/pic/bin/bin/../../lib/gcc/pic32mx/4.8.3\libgcc.a(_ashldi3.o)
 .reginfo       0x00000000       0x18 e:/pic/bin/bin/../../lib/gcc/pic32mx/4.8.3\libgcc.a(_udivdi3.o)
 .reginfo       0x00000000       0x18 e:/pic/bin/bin/../../lib/gcc/pic32mx/4.8.3\libgcc.a(_umoddi3.o)
 .reginfo       0x00000000       0x18 e:/pic/bin/bin/../../lib/gcc/pic32mx/4.8.3/../../../../pic32mx/lib\libpic32.a(_mon_getc.o)
 .reginfo       0x00000000       0x18 e:/pic/bin/bin/../../lib/gcc/pic32mx/4.8.3/../../../../pic32mx/lib\libpic32.a(_mon_write.o)
 .reginfo       0x00000000       0x18 e:/pic/bin/bin/../../lib/gcc/pic32mx/4.8.3/../../../../pic32mx/lib\libpic32.a(xc32_uart.o)
 .reginfo       0x00000000       0x18 e:/pic/bin/bin/../../lib/gcc/pic32mx/4.8.3/../../../../pic32mx/lib\libpic32.a(_mon_putc.o)

Memory Configuration

Name             Origin             Length             Attributes
kseg0_program_mem 0x9d000000         0x0003f000         xr
exception_mem    0x9d03f000         0x00001000
debug_exec_mem   0x9fc00490         0x00000760
kseg0_boot_mem   0x9fc00490         0x00000000
kseg1_boot_mem   0xbfc00000         0x00000490
config3          0xbfc00bf0         0x00000004
config2          0xbfc00bf4         0x00000004
config1          0xbfc00bf8         0x00000004
config0          0xbfc00bfc         0x00000004
kseg1_data_mem   0xa0000000         0x00010000         w !x
sfrs             0xbf800000         0x00100000
configsfrs       0xbfc00bf0         0x00000010
*default*        0x00000000         0xffffffff

Linker script and memory map

LOAD e:/pic/bin/bin/../../lib/gcc/pic32mx/4.8.3/../../../../pic32mx/lib/./proc/32MX170F256B/crt0_mips32r2.o
LOAD e:/pic/bin/bin/../../lib/gcc/pic32mx/4.8.3/../../../../pic32mx/lib\debug-exception-return.o
LOAD build/default/production/CONFIG.o
LOAD build/default/production/Interrupts.o
LOAD build/default/production/main.o
LOAD build/default/production/I2C.o
LOAD build/default/production/SPI.o
LOAD build/default/production/ILI9341.o
LOAD build/default/production/EUSART.o
LOAD build/default/production/Delay.o
LOAD build/default/production/BNO055.o
LOAD build/default/production/MT3339.o
LOAD build/default/production/MAX17043.o
LOAD build/default/production/BQ27441.o
LOAD build/default/production/I2C_new.o
                0x00000001                __MPLAB_BUILD = 0x1
                0x00000400                _min_heap_size = 0x400
LOAD e:/pic/bin/bin/../../lib/gcc/pic32mx/4.8.3/../../../../pic32mx/lib/./proc/32MX170F256B\default_isr_vectors.o
LOAD e:/pic/bin/bin/../../lib/gcc/pic32mx/4.8.3/../../../../pic32mx/lib\pic32_software_reset.o
                0x00000400                PROVIDE (_min_stack_size, 0x400)
LOAD e:/pic/bin/bin/../../lib/gcc/pic32mx/4.8.3/../../../../pic32mx/lib/./proc/32MX170F256B\processor.o
START GROUP
LOAD libmchp_peripheral.a
END GROUP
START GROUP
LOAD libmchp_peripheral_32MX170F256B.a
END GROUP
                0x00000001                PROVIDE (_vector_spacing, 0x1)
                0x9d03f000                PROVIDE (_ebase_address, 0x9d03f000)
                0xbfc00000                _RESET_ADDR = 0xbfc00000
                0xbfc00380                _BEV_EXCPT_ADDR = 0xbfc00380
                0xbfc00480                _DBG_EXCPT_ADDR = 0xbfc00480
                0x9fc00490                _DBG_CODE_ADDR = 0x9fc00490
                0x00000760                _DBG_CODE_SIZE = 0x760
                0x9d03f180                _GEN_EXCPT_ADDR = (_ebase_address + 0x180)

.config_BFC00BF0
                0xbfc00bf0        0x4
 *(.config_BFC00BF0)
 .config_BFC00BF0
                0xbfc00bf0        0x4 build/default/production/CONFIG.o

.config_BFC00BF4
                0xbfc00bf4        0x4
 *(.config_BFC00BF4)
 .config_BFC00BF4
                0xbfc00bf4        0x4 build/default/production/CONFIG.o

.config_BFC00BF8
                0xbfc00bf8        0x4
 *(.config_BFC00BF8)
 .config_BFC00BF8
                0xbfc00bf8        0x4 build/default/production/CONFIG.o

.config_BFC00BFC
                0xbfc00bfc        0x4
 *(.config_BFC00BFC)
 .config_BFC00BFC
                0xbfc00bfc        0x4 build/default/production/CONFIG.o
                0xbfc02000                PROVIDE (_DBG_CODE_ADDR, 0xbfc02000)
                0x00000ff0                PROVIDE (_DBG_CODE_SIZE, 0xff0)

.reset          0xbfc00000      0x184
 *(.reset)
 .reset         0xbfc00000        0x8 e:/pic/bin/bin/../../lib/gcc/pic32mx/4.8.3/../../../../pic32mx/lib/./proc/32MX170F256B/crt0_mips32r2.o
                0xbfc00000                _reset
 *(.reset.startup)
 .reset.startup
                0xbfc00008      0x17c e:/pic/bin/bin/../../lib/gcc/pic32mx/4.8.3/../../../../pic32mx/lib/./proc/32MX170F256B/crt0_mips32r2.o
                0xbfc00008                _startup

.bev_excpt      0xbfc00380       0x10
 *(.bev_handler)
 .bev_handler   0xbfc00380       0x10 e:/pic/bin/bin/../../lib/gcc/pic32mx/4.8.3/../../../../pic32mx/lib/./proc/32MX170F256B/crt0_mips32r2.o

.dbg_excpt      0xbfc00480        0x0
                0xbfc00480                . = (. + DEFINED (_DEBUGGER)?0x8:0x0)

.dbg_code       0x9fc00490        0x0
                0x9fc00490                . = (. + DEFINED (_DEBUGGER)?_DBG_CODE_SIZE:0x0)

.app_excpt      0x9d03f180       0x10
 *(.gen_handler)
 .gen_handler   0x9d03f180       0x10 e:/pic/bin/bin/../../lib/gcc/pic32mx/4.8.3/../../../../pic32mx/lib/./proc/32MX170F256B/crt0_mips32r2.o

.vector_0       0x9d03f200        0x8
 *(.vector_0)
 .vector_0      0x9d03f200        0x8 e:/pic/bin/bin/../../lib/gcc/pic32mx/4.8.3/../../../../pic32mx/lib\libpic32.a(vector0.o)
                0x9d03f200                __vector_dispatch_0
                0x00000001                ASSERT (((_vector_spacing == 0x0) || (SIZEOF (.vector_0) <= (_vector_spacing << 0x5))), function at exception vector 0 too large)

.vector_1       0x9d03f220        0x8
 *(.vector_1)
 .vector_1      0x9d03f220        0x8 e:/pic/bin/bin/../../lib/gcc/pic32mx/4.8.3/../../../../pic32mx/lib\libpic32.a(vector1.o)
                0x9d03f220                __vector_dispatch_1
                0x00000001                ASSERT (((_vector_spacing == 0x0) || (SIZEOF (.vector_1) <= (_vector_spacing << 0x5))), function at exception vector 1 too large)

.vector_2       0x9d03f240        0x8
 *(.vector_2)
 .vector_2      0x9d03f240        0x8 e:/pic/bin/bin/../../lib/gcc/pic32mx/4.8.3/../../../../pic32mx/lib\libpic32.a(vector2.o)
                0x9d03f240                __vector_dispatch_2
                0x00000001                ASSERT (((_vector_spacing == 0x0) || (SIZEOF (.vector_2) <= (_vector_spacing << 0x5))), function at exception vector 2 too large)

.vector_3       0x9d03f260        0x8
 *(.vector_3)
 .vector_3      0x9d03f260        0x8 e:/pic/bin/bin/../../lib/gcc/pic32mx/4.8.3/../../../../pic32mx/lib\libpic32.a(vector3.o)
                0x9d03f260                __vector_dispatch_3
                0x00000001                ASSERT (((_vector_spacing == 0x0) || (SIZEOF (.vector_3) <= (_vector_spacing << 0x5))), function at exception vector 3 too large)

.vector_4       0x9d03f280        0x8
 *(.vector_4)
 .vector_4      0x9d03f280        0x8 e:/pic/bin/bin/../../lib/gcc/pic32mx/4.8.3/../../../../pic32mx/lib\libpic32.a(vector4.o)
                0x9d03f280                __vector_dispatch_4
                0x00000001                ASSERT (((_vector_spacing == 0x0) || (SIZEOF (.vector_4) <= (_vector_spacing << 0x5))), function at exception vector 4 too large)

.vector_5       0x9d03f2a0        0x8
 *(.vector_5)
 .vector_5      0x9d03f2a0        0x8 e:/pic/bin/bin/../../lib/gcc/pic32mx/4.8.3/../../../../pic32mx/lib\libpic32.a(vector5.o)
                0x9d03f2a0                __vector_dispatch_5
                0x00000001                ASSERT (((_vector_spacing == 0x0) || (SIZEOF (.vector_5) <= (_vector_spacing << 0x5))), function at exception vector 5 too large)

.vector_6       0x9d03f2c0        0x8
 *(.vector_6)
 .vector_6      0x9d03f2c0        0x8 e:/pic/bin/bin/../../lib/gcc/pic32mx/4.8.3/../../../../pic32mx/lib\libpic32.a(vector6.o)
                0x9d03f2c0                __vector_dispatch_6
                0x00000001                ASSERT (((_vector_spacing == 0x0) || (SIZEOF (.vector_6) <= (_vector_spacing << 0x5))), function at exception vector 6 too large)

.vector_7       0x9d03f2e0        0x8
 *(.vector_7)
 .vector_7      0x9d03f2e0        0x8 e:/pic/bin/bin/../../lib/gcc/pic32mx/4.8.3/../../../../pic32mx/lib\libpic32.a(vector7.o)
                0x9d03f2e0                __vector_dispatch_7
                0x00000001                ASSERT (((_vector_spacing == 0x0) || (SIZEOF (.vector_7) <= (_vector_spacing << 0x5))), function at exception vector 7 too large)

.vector_8       0x9d03f300        0x8
 *(.vector_8)
 .vector_8      0x9d03f300        0x8 e:/pic/bin/bin/../../lib/gcc/pic32mx/4.8.3/../../../../pic32mx/lib\libpic32.a(vector8.o)
                0x9d03f300                __vector_dispatch_8
                0x00000001                ASSERT (((_vector_spacing == 0x0) || (SIZEOF (.vector_8) <= (_vector_spacing << 0x5))), function at exception vector 8 too large)

.vector_9       0x9d03f320        0x8
 *(.vector_9)
 .vector_9      0x9d03f320        0x8 e:/pic/bin/bin/../../lib/gcc/pic32mx/4.8.3/../../../../pic32mx/lib\libpic32.a(vector9.o)
                0x9d03f320                __vector_dispatch_9
                0x00000001                ASSERT (((_vector_spacing == 0x0) || (SIZEOF (.vector_9) <= (_vector_spacing << 0x5))), function at exception vector 9 too large)

.vector_10      0x9d03f340        0x8
 *(.vector_10)
 .vector_10     0x9d03f340        0x8 e:/pic/bin/bin/../../lib/gcc/pic32mx/4.8.3/../../../../pic32mx/lib\libpic32.a(vector10.o)
                0x9d03f340                __vector_dispatch_10
                0x00000001                ASSERT (((_vector_spacing == 0x0) || (SIZEOF (.vector_10) <= (_vector_spacing << 0x5))), function at exception vector 10 too large)

.vector_11      0x9d03f360        0x8
 *(.vector_11)
 .vector_11     0x9d03f360        0x8 e:/pic/bin/bin/../../lib/gcc/pic32mx/4.8.3/../../../../pic32mx/lib\libpic32.a(vector11.o)
                0x9d03f360                __vector_dispatch_11
                0x00000001                ASSERT (((_vector_spacing == 0x0) || (SIZEOF (.vector_11) <= (_vector_spacing << 0x5))), function at exception vector 11 too large)

.vector_12      0x9d03f380        0x8
 *(.vector_12)
 .vector_12     0x9d03f380        0x8 e:/pic/bin/bin/../../lib/gcc/pic32mx/4.8.3/../../../../pic32mx/lib\libpic32.a(vector12.o)
                0x9d03f380                __vector_dispatch_12
                0x00000001                ASSERT (((_vector_spacing == 0x0) || (SIZEOF (.vector_12) <= (_vector_spacing << 0x5))), function at exception vector 12 too large)

.vector_13      0x9d03f3a0        0x8
 *(.vector_13)
 .vector_13     0x9d03f3a0        0x8 e:/pic/bin/bin/../../lib/gcc/pic32mx/4.8.3/../../../../pic32mx/lib\libpic32.a(vector13.o)
                0x9d03f3a0                __vector_dispatch_13
                0x00000001                ASSERT (((_vector_spacing == 0x0) || (SIZEOF (.vector_13) <= (_vector_spacing << 0x5))), function at exception vector 13 too large)

.vector_14      0x9d03f3c0        0x8
 *(.vector_14)
 .vector_14     0x9d03f3c0        0x8 e:/pic/bin/bin/../../lib/gcc/pic32mx/4.8.3/../../../../pic32mx/lib\libpic32.a(vector14.o)
                0x9d03f3c0                __vector_dispatch_14
                0x00000001                ASSERT (((_vector_spacing == 0x0) || (SIZEOF (.vector_14) <= (_vector_spacing << 0x5))), function at exception vector 14 too large)

.vector_15      0x9d03f3e0        0x8
 *(.vector_15)
 .vector_15     0x9d03f3e0        0x8 e:/pic/bin/bin/../../lib/gcc/pic32mx/4.8.3/../../../../pic32mx/lib\libpic32.a(vector15.o)
                0x9d03f3e0                __vector_dispatch_15
                0x00000001                ASSERT (((_vector_spacing == 0x0) || (SIZEOF (.vector_15) <= (_vector_spacing << 0x5))), function at exception vector 15 too large)

.vector_16      0x9d03f400        0x8
 *(.vector_16)
 .vector_16     0x9d03f400        0x8 e:/pic/bin/bin/../../lib/gcc/pic32mx/4.8.3/../../../../pic32mx/lib\libpic32.a(vector16.o)
                0x9d03f400                __vector_dispatch_16
                0x00000001                ASSERT (((_vector_spacing == 0x0) || (SIZEOF (.vector_16) <= (_vector_spacing << 0x5))), function at exception vector 16 too large)

.vector_17      0x9d03f420        0x8
 *(.vector_17)
 .vector_17     0x9d03f420        0x8 e:/pic/bin/bin/../../lib/gcc/pic32mx/4.8.3/../../../../pic32mx/lib\libpic32.a(vector17.o)
                0x9d03f420                __vector_dispatch_17
                0x00000001                ASSERT (((_vector_spacing == 0x0) || (SIZEOF (.vector_17) <= (_vector_spacing << 0x5))), function at exception vector 17 too large)

.vector_18      0x9d03f440        0x8
 *(.vector_18)
 .vector_18     0x9d03f440        0x8 e:/pic/bin/bin/../../lib/gcc/pic32mx/4.8.3/../../../../pic32mx/lib\libpic32.a(vector18.o)
                0x9d03f440                __vector_dispatch_18
                0x00000001                ASSERT (((_vector_spacing == 0x0) || (SIZEOF (.vector_18) <= (_vector_spacing << 0x5))), function at exception vector 18 too large)

.vector_19      0x9d03f460        0x8
 *(.vector_19)
 .vector_19     0x9d03f460        0x8 e:/pic/bin/bin/../../lib/gcc/pic32mx/4.8.3/../../../../pic32mx/lib\libpic32.a(vector19.o)
                0x9d03f460                __vector_dispatch_19
                0x00000001                ASSERT (((_vector_spacing == 0x0) || (SIZEOF (.vector_19) <= (_vector_spacing << 0x5))), function at exception vector 19 too large)

.vector_20      0x9d03f480        0x8
 *(.vector_20)
 .vector_20     0x9d03f480        0x8 e:/pic/bin/bin/../../lib/gcc/pic32mx/4.8.3/../../../../pic32mx/lib\libpic32.a(vector20.o)
                0x9d03f480                __vector_dispatch_20
                0x00000001                ASSERT (((_vector_spacing == 0x0) || (SIZEOF (.vector_20) <= (_vector_spacing << 0x5))), function at exception vector 20 too large)

.vector_21      0x9d03f4a0        0x8
 *(.vector_21)
 .vector_21     0x9d03f4a0        0x8 e:/pic/bin/bin/../../lib/gcc/pic32mx/4.8.3/../../../../pic32mx/lib\libpic32.a(vector21.o)
                0x9d03f4a0                __vector_dispatch_21
                0x00000001                ASSERT (((_vector_spacing == 0x0) || (SIZEOF (.vector_21) <= (_vector_spacing << 0x5))), function at exception vector 21 too large)

.vector_22      0x9d03f4c0        0x8
 *(.vector_22)
 .vector_22     0x9d03f4c0        0x8 e:/pic/bin/bin/../../lib/gcc/pic32mx/4.8.3/../../../../pic32mx/lib\libpic32.a(vector22.o)
                0x9d03f4c0                __vector_dispatch_22
                0x00000001                ASSERT (((_vector_spacing == 0x0) || (SIZEOF (.vector_22) <= (_vector_spacing << 0x5))), function at exception vector 22 too large)

.vector_23      0x9d03f4e0        0x8
 *(.vector_23)
 .vector_23     0x9d03f4e0        0x8 e:/pic/bin/bin/../../lib/gcc/pic32mx/4.8.3/../../../../pic32mx/lib\libpic32.a(vector23.o)
                0x9d03f4e0                __vector_dispatch_23
                0x00000001                ASSERT (((_vector_spacing == 0x0) || (SIZEOF (.vector_23) <= (_vector_spacing << 0x5))), function at exception vector 23 too large)

.vector_24      0x9d03f500        0x8
 *(.vector_24)
 .vector_24     0x9d03f500        0x8 e:/pic/bin/bin/../../lib/gcc/pic32mx/4.8.3/../../../../pic32mx/lib\libpic32.a(vector24.o)
                0x9d03f500                __vector_dispatch_24
                0x00000001                ASSERT (((_vector_spacing == 0x0) || (SIZEOF (.vector_24) <= (_vector_spacing << 0x5))), function at exception vector 24 too large)

.vector_25      0x9d03f520        0x8
 *(.vector_25)
 .vector_25     0x9d03f520        0x8 e:/pic/bin/bin/../../lib/gcc/pic32mx/4.8.3/../../../../pic32mx/lib\libpic32.a(vector25.o)
                0x9d03f520                __vector_dispatch_25
                0x00000001                ASSERT (((_vector_spacing == 0x0) || (SIZEOF (.vector_25) <= (_vector_spacing << 0x5))), function at exception vector 25 too large)

.vector_26      0x9d03f540        0x8
 *(.vector_26)
 .vector_26     0x9d03f540        0x8 e:/pic/bin/bin/../../lib/gcc/pic32mx/4.8.3/../../../../pic32mx/lib\libpic32.a(vector26.o)
                0x9d03f540                __vector_dispatch_26
                0x00000001                ASSERT (((_vector_spacing == 0x0) || (SIZEOF (.vector_26) <= (_vector_spacing << 0x5))), function at exception vector 26 too large)

.vector_27      0x9d03f560        0x8
 *(.vector_27)
 .vector_27     0x9d03f560        0x8 e:/pic/bin/bin/../../lib/gcc/pic32mx/4.8.3/../../../../pic32mx/lib\libpic32.a(vector27.o)
                0x9d03f560                __vector_dispatch_27
                0x00000001                ASSERT (((_vector_spacing == 0x0) || (SIZEOF (.vector_27) <= (_vector_spacing << 0x5))), function at exception vector 27 too large)

.vector_28      0x9d03f580        0x8
 *(.vector_28)
 .vector_28     0x9d03f580        0x8 e:/pic/bin/bin/../../lib/gcc/pic32mx/4.8.3/../../../../pic32mx/lib\libpic32.a(vector28.o)
                0x9d03f580                __vector_dispatch_28
                0x00000001                ASSERT (((_vector_spacing == 0x0) || (SIZEOF (.vector_28) <= (_vector_spacing << 0x5))), function at exception vector 28 too large)

.vector_29      0x9d03f5a0        0x8
 *(.vector_29)
 .vector_29     0x9d03f5a0        0x8 e:/pic/bin/bin/../../lib/gcc/pic32mx/4.8.3/../../../../pic32mx/lib\libpic32.a(vector29.o)
                0x9d03f5a0                __vector_dispatch_29
                0x00000001                ASSERT (((_vector_spacing == 0x0) || (SIZEOF (.vector_29) <= (_vector_spacing << 0x5))), function at exception vector 29 too large)

.vector_30      0x9d03f5c0        0x8
 *(.vector_30)
 .vector_30     0x9d03f5c0        0x8 e:/pic/bin/bin/../../lib/gcc/pic32mx/4.8.3/../../../../pic32mx/lib\libpic32.a(vector30.o)
                0x9d03f5c0                __vector_dispatch_30
                0x00000001                ASSERT (((_vector_spacing == 0x0) || (SIZEOF (.vector_30) <= (_vector_spacing << 0x5))), function at exception vector 30 too large)

.vector_31      0x9d03f5e0        0x8
 *(.vector_31)
 .vector_31     0x9d03f5e0        0x8 e:/pic/bin/bin/../../lib/gcc/pic32mx/4.8.3/../../../../pic32mx/lib\libpic32.a(vector31.o)
                0x9d03f5e0                __vector_dispatch_31
                0x00000001                ASSERT (((_vector_spacing == 0x0) || (SIZEOF (.vector_31) <= (_vector_spacing << 0x5))), function at exception vector 31 too large)

.vector_32      0x9d03f600        0x8
 *(.vector_32)
 .vector_32     0x9d03f600        0x8 build/default/production/Interrupts.o
                0x9d03f600                __vector_dispatch_32
                0x00000001                ASSERT (((_vector_spacing == 0x0) || (SIZEOF (.vector_32) <= (_vector_spacing << 0x5))), function at exception vector 32 too large)

.vector_33      0x9d03f620        0x8
 *(.vector_33)
 .vector_33     0x9d03f620        0x8 e:/pic/bin/bin/../../lib/gcc/pic32mx/4.8.3/../../../../pic32mx/lib\libpic32.a(vector33.o)
                0x9d03f620                __vector_dispatch_33
                0x00000001                ASSERT (((_vector_spacing == 0x0) || (SIZEOF (.vector_33) <= (_vector_spacing << 0x5))), function at exception vector 33 too large)

.vector_34      0x9d03f640        0x8
 *(.vector_34)
 .vector_34     0x9d03f640        0x8 e:/pic/bin/bin/../../lib/gcc/pic32mx/4.8.3/../../../../pic32mx/lib\libpic32.a(vector34.o)
                0x9d03f640                __vector_dispatch_34
                0x00000001                ASSERT (((_vector_spacing == 0x0) || (SIZEOF (.vector_34) <= (_vector_spacing << 0x5))), function at exception vector 34 too large)

.vector_35      0x9d03f660        0x8
 *(.vector_35)
 .vector_35     0x9d03f660        0x8 e:/pic/bin/bin/../../lib/gcc/pic32mx/4.8.3/../../../../pic32mx/lib\libpic32.a(vector35.o)
                0x9d03f660                __vector_dispatch_35
                0x00000001                ASSERT (((_vector_spacing == 0x0) || (SIZEOF (.vector_35) <= (_vector_spacing << 0x5))), function at exception vector 35 too large)

.vector_36      0x9d03f680        0x8
 *(.vector_36)
 .vector_36     0x9d03f680        0x8 e:/pic/bin/bin/../../lib/gcc/pic32mx/4.8.3/../../../../pic32mx/lib\libpic32.a(vector36.o)
                0x9d03f680                __vector_dispatch_36
                0x00000001                ASSERT (((_vector_spacing == 0x0) || (SIZEOF (.vector_36) <= (_vector_spacing << 0x5))), function at exception vector 36 too large)

.vector_37      0x9d03f6a0        0x8
 *(.vector_37)
 .vector_37     0x9d03f6a0        0x8 build/default/production/Interrupts.o
                0x9d03f6a0                __vector_dispatch_37
                0x00000001                ASSERT (((_vector_spacing == 0x0) || (SIZEOF (.vector_37) <= (_vector_spacing << 0x5))), function at exception vector 37 too large)

.vector_38      0x9d03f6c0        0x8
 *(.vector_38)
 .vector_38     0x9d03f6c0        0x8 e:/pic/bin/bin/../../lib/gcc/pic32mx/4.8.3/../../../../pic32mx/lib\libpic32.a(vector38.o)
                0x9d03f6c0                __vector_dispatch_38
                0x00000001                ASSERT (((_vector_spacing == 0x0) || (SIZEOF (.vector_38) <= (_vector_spacing << 0x5))), function at exception vector 38 too large)

.vector_39      0x9d03f6e0        0x8
 *(.vector_39)
 .vector_39     0x9d03f6e0        0x8 e:/pic/bin/bin/../../lib/gcc/pic32mx/4.8.3/../../../../pic32mx/lib\libpic32.a(vector39.o)
                0x9d03f6e0                __vector_dispatch_39
                0x00000001                ASSERT (((_vector_spacing == 0x0) || (SIZEOF (.vector_39) <= (_vector_spacing << 0x5))), function at exception vector 39 too large)

.vector_40      0x9d03f700        0x8
 *(.vector_40)
 .vector_40     0x9d03f700        0x8 e:/pic/bin/bin/../../lib/gcc/pic32mx/4.8.3/../../../../pic32mx/lib\libpic32.a(vector40.o)
                0x9d03f700                __vector_dispatch_40
                0x00000001                ASSERT (((_vector_spacing == 0x0) || (SIZEOF (.vector_40) <= (_vector_spacing << 0x5))), function at exception vector 40 too large)

.vector_41      0x9d03f720        0x8
 *(.vector_41)
 .vector_41     0x9d03f720        0x8 e:/pic/bin/bin/../../lib/gcc/pic32mx/4.8.3/../../../../pic32mx/lib\libpic32.a(vector41.o)
                0x9d03f720                __vector_dispatch_41
                0x00000001                ASSERT (((_vector_spacing == 0x0) || (SIZEOF (.vector_41) <= (_vector_spacing << 0x5))), function at exception vector 41 too large)

.vector_42      0x9d03f740        0x8
 *(.vector_42)
 .vector_42     0x9d03f740        0x8 e:/pic/bin/bin/../../lib/gcc/pic32mx/4.8.3/../../../../pic32mx/lib\libpic32.a(vector42.o)
                0x9d03f740                __vector_dispatch_42
                0x00000001                ASSERT (((_vector_spacing == 0x0) || (SIZEOF (.vector_42) <= (_vector_spacing << 0x5))), function at exception vector 42 too large)

.vector_43      0x9d03f760        0x8
 *(.vector_43)
 .vector_43     0x9d03f760        0x8 e:/pic/bin/bin/../../lib/gcc/pic32mx/4.8.3/../../../../pic32mx/lib\libpic32.a(vector43.o)
                0x9d03f760                __vector_dispatch_43
                0x00000001                ASSERT (((_vector_spacing == 0x0) || (SIZEOF (.vector_43) <= (_vector_spacing << 0x5))), function at exception vector 43 too large)

.vector_44      0x9d03f780        0x0
 *(.vector_44)
                0x00000001                ASSERT (((_vector_spacing == 0x0) || (SIZEOF (.vector_44) <= (_vector_spacing << 0x5))), function at exception vector 44 too large)

.vector_45      0x9d03f7a0        0x0
 *(.vector_45)
                0x00000001                ASSERT (((_vector_spacing == 0x0) || (SIZEOF (.vector_45) <= (_vector_spacing << 0x5))), function at exception vector 45 too large)

.vector_46      0x9d03f7c0        0x0
 *(.vector_46)
                0x00000001                ASSERT (((_vector_spacing == 0x0) || (SIZEOF (.vector_46) <= (_vector_spacing << 0x5))), function at exception vector 46 too large)

.vector_47      0x9d03f7e0        0x0
 *(.vector_47)
                0x00000001                ASSERT (((_vector_spacing == 0x0) || (SIZEOF (.vector_47) <= (_vector_spacing << 0x5))), function at exception vector 47 too large)

.vector_48      0x9d03f800        0x0
 *(.vector_48)
                0x00000001                ASSERT (((_vector_spacing == 0x0) || (SIZEOF (.vector_48) <= (_vector_spacing << 0x5))), function at exception vector 48 too large)

.vector_49      0x9d03f820        0x0
 *(.vector_49)
                0x00000001                ASSERT (((_vector_spacing == 0x0) || (SIZEOF (.vector_49) <= (_vector_spacing << 0x5))), function at exception vector 49 too large)

.vector_50      0x9d03f840        0x0
 *(.vector_50)
                0x00000001                ASSERT (((_vector_spacing == 0x0) || (SIZEOF (.vector_50) <= (_vector_spacing << 0x5))), function at exception vector 50 too large)

.vector_51      0x9d03f860        0x0
 *(.vector_51)
                0x00000001                ASSERT (((_vector_spacing == 0x0) || (SIZEOF (.vector_51) <= (_vector_spacing << 0x5))), function at exception vector 51 too large)

.vector_52      0x9d03f880        0x0
 *(.vector_52)
                0x00000001                ASSERT (((_vector_spacing == 0x0) || (SIZEOF (.vector_52) <= (_vector_spacing << 0x5))), function at exception vector 52 too large)

.vector_53      0x9d03f8a0        0x0
 *(.vector_53)
                0x00000001                ASSERT (((_vector_spacing == 0x0) || (SIZEOF (.vector_53) <= (_vector_spacing << 0x5))), function at exception vector 53 too large)

.vector_54      0x9d03f8c0        0x0
 *(.vector_54)
                0x00000001                ASSERT (((_vector_spacing == 0x0) || (SIZEOF (.vector_54) <= (_vector_spacing << 0x5))), function at exception vector 54 too large)

.vector_55      0x9d03f8e0        0x0
 *(.vector_55)
                0x00000001                ASSERT (((_vector_spacing == 0x0) || (SIZEOF (.vector_55) <= (_vector_spacing << 0x5))), function at exception vector 55 too large)

.vector_56      0x9d03f900        0x0
 *(.vector_56)
                0x00000001                ASSERT (((_vector_spacing == 0x0) || (SIZEOF (.vector_56) <= (_vector_spacing << 0x5))), function at exception vector 56 too large)

.vector_57      0x9d03f920        0x0
 *(.vector_57)
                0x00000001                ASSERT (((_vector_spacing == 0x0) || (SIZEOF (.vector_57) <= (_vector_spacing << 0x5))), function at exception vector 57 too large)

.vector_58      0x9d03f940        0x0
 *(.vector_58)
                0x00000001                ASSERT (((_vector_spacing == 0x0) || (SIZEOF (.vector_58) <= (_vector_spacing << 0x5))), function at exception vector 58 too large)

.vector_59      0x9d03f960        0x0
 *(.vector_59)
                0x00000001                ASSERT (((_vector_spacing == 0x0) || (SIZEOF (.vector_59) <= (_vector_spacing << 0x5))), function at exception vector 59 too large)

.vector_60      0x9d03f980        0x0
 *(.vector_60)
                0x00000001                ASSERT (((_vector_spacing == 0x0) || (SIZEOF (.vector_60) <= (_vector_spacing << 0x5))), function at exception vector 60 too large)

.vector_61      0x9d03f9a0        0x0
 *(.vector_61)
                0x00000001                ASSERT (((_vector_spacing == 0x0) || (SIZEOF (.vector_61) <= (_vector_spacing << 0x5))), function at exception vector 61 too large)

.vector_62      0x9d03f9c0        0x0
 *(.vector_62)
                0x00000001                ASSERT (((_vector_spacing == 0x0) || (SIZEOF (.vector_62) <= (_vector_spacing << 0x5))), function at exception vector 62 too large)

.vector_63      0x9d03f9e0        0x0
 *(.vector_63)
                0x00000001                ASSERT (((_vector_spacing == 0x0) || (SIZEOF (.vector_63) <= (_vector_spacing << 0x5))), function at exception vector 63 too large)

.startup
 *(.startup)

.text           0x9d000000        0x0
 *(.stub .gnu.linkonce.t.*)
 *(.text.*personality*)
 *(.mips16.fn.*)
 *(.mips16.call.*)
 *(.gnu.warning)
                0x9d000000                . = ALIGN (0x4)

.init           0x9d000000        0x0
 *crti.o(.init)
 *crtbegin.o(.init)
 *(EXCLUDE_FILE(*crtn.o *crtend?.o *crtend.o) .init)
 *crtend.o(.init)
 *crtn.o(.init)
                0x9d000000                . = ALIGN (0x4)

.fini           0x9d000000        0x0
 *(.fini)
                0x9d000000                . = ALIGN (0x4)

.preinit_array  0x9d000000        0x0
                0x9d000000                PROVIDE (__preinit_array_start, .)
 *(.preinit_array)
                0x9d000000                PROVIDE (__preinit_array_end, .)
                0x9d000000                . = ALIGN (0x4)

.init_array     0x9d000000        0x0
                0x9d000000                PROVIDE (__init_array_start, .)
 *(SORT(.init_array.*))
 *(.init_array)
                0x9d000000                PROVIDE (__init_array_end, .)
                0x9d000000                . = ALIGN (0x4)

.fini_array     0x9d000000        0x0
                0x9d000000                PROVIDE (__fini_array_start, .)
 *(SORT(.fini_array.*))
 *(.fini_array)
                0x9d000000                PROVIDE (__fini_array_end, .)
                0x9d000000                . = ALIGN (0x4)

.ctors          0x9d000000        0x0
 *crtbegin.o(.ctors)
 *crtbegin?.o(.ctors)
 *(EXCLUDE_FILE(*crtend?.o *crtend.o) .ctors)
 *(SORT(.ctors.*))
 *(.ctors)
                0x9d000000                . = ALIGN (0x4)

.dtors          0x9d000000        0x0
 *crtbegin.o(.dtors)
 *crtbegin?.o(.dtors)
 *(EXCLUDE_FILE(*crtend?.o *crtend.o) .dtors)
 *(SORT(.dtors.*))
 *(.dtors)
                0x9d000000                . = ALIGN (0x4)

.rodata         0x9d000000        0x0
 *(.gnu.linkonce.r.*)
 *(.rodata1)
                0x9d000000                . = ALIGN (0x4)

.sdata2         0x9fc00490        0x0
 *(.sdata2 .sdata2.* .gnu.linkonce.s2.*)
                0x9fc00490                . = ALIGN (0x4)

.sbss2          0x9fc00490        0x0
 *(.sbss2 .sbss2.* .gnu.linkonce.sb2.*)
                0x9fc00490                . = ALIGN (0x4)

.eh_frame_hdr
 *(.eh_frame_hdr)
                0x9fc00490                . = ALIGN (0x4)

.eh_frame
 *(.eh_frame)
                0x9fc00490                . = ALIGN (0x4)

.gcc_except_table
 *(.gcc_except_table .gcc_except_table.*)
                0x9fc00490                . = ALIGN (0x4)

.dbg_data       0xa0000000        0x0
                0xa0000000                . = (. + DEFINED (_DEBUGGER)?0x200:0x0)

.jcr            0xa0000000        0x0
 *(.jcr)
                0xa0000000                . = ALIGN (0x4)

.eh_frame
 *(.eh_frame)
                0xa0000000                . = ALIGN (0x4)

.gcc_except_table
 *(.gcc_except_table .gcc_except_table.*)
                0xa0000000                . = ALIGN (0x4)

.persist        0xa0000000        0x0
                0xa0000000                _persist_begin = .
 *(.persist .persist.*)
 *(.pbss .pbss.*)
                0xa0000000                . = ALIGN (0x4)
                0xa0000000                _persist_end = .

.data           0xa0000000        0x0
 *(.gnu.linkonce.d.*)
 *(.data1)
                0xa0000000                . = ALIGN (0x4)
                0xa0000000                . = .
                0xa0007ff0                _gp = (ALIGN (0x10) + 0x7ff0)

.got            0xa0000000        0x0
 *(.got.plt)
 *(.got)
                0xa0000000                . = ALIGN (0x4)

.sdata          0xa0000000       0x28
                0xa0000000                _sdata_begin = .
 *(.sdata .sdata.* .gnu.linkonce.s.*)
 .sdata         0xa0000000        0x4 build/default/production/main.o
                0xa0000000                delta_t
 .sdata         0xa0000004        0x4 build/default/production/I2C.o
 .sdata         0xa0000008        0x8 build/default/production/ILI9341.o
                0xa0000008                frame_memory
                0xa000000c                tft_x
 .sdata         0xa0000010        0x4 build/default/production/BNO055.o
 .sdata         0xa0000014        0x4 build/default/production/MAX17043.o
 .sdata         0xa0000018        0x4 build/default/production/BQ27441.o
 .sdata         0xa000001c        0x4 build/default/production/I2C_new.o
 .sdata         0xa0000020        0x4 e:/pic/bin/bin/../../lib/gcc/pic32mx/4.8.3/../../../../pic32mx/lib\liblega-c.a(_iobdata.o)
                0xa0000020                _libc_data
 .sdata         0xa0000024        0x4 e:/pic/bin/bin/../../lib/gcc/pic32mx/4.8.3/../../../../pic32mx/lib\libpic32.a(xc32_uart.o)
                0xa0000024                __XC_UART
                0xa0000028                . = ALIGN (0x4)
                0xa0000028                _sdata_end = .

.lit8
 *(.lit8)

.lit4
 *(.lit4)
                0xa0000028                . = ALIGN (0x4)
                0xa0000028                _data_end = .
                0xa0000028                _bss_begin = .

.sbss           0xa0000028      0x1bc
                0xa0000028                _sbss_begin = .
 *(.dynsbss)
 *(.sbss .sbss.* .gnu.linkonce.sb.*)
 .sbss          0xa0000028       0x16 build/default/production/main.o
 .sbss          0xa000003e       0x16 build/default/production/I2C.o
 .sbss          0xa0000054        0x1 build/default/production/ILI9341.o
                0xa0000054                dot_size
 *fill*         0xa0000055        0x1 
 .sbss          0xa0000056       0x16 build/default/production/BNO055.o
 .sbss          0xa000006c       0x16 build/default/production/MAX17043.o
 .sbss          0xa0000082       0x16 build/default/production/BQ27441.o
 .sbss          0xa0000098       0x16 build/default/production/I2C_new.o
 *fill*         0xa00000ae        0x2 
 .sbss          0xa00000b0        0x4 e:/pic/bin/bin/../../lib/gcc/pic32mx/4.8.3/../../../../pic32mx/lib\liblega-c.a(errno.o)
                0xa00000b0                errno
 *(.scommon)
 .scommon       0xa00000b4       0x74 build/default/production/Interrupts.o
                0xa00000b4                geoidheight
                0xa00000b8                fixquality
                0xa00000bc                y_last
                0xa00000c0                nmea_index
                0xa00000c4                NMEA_Enable
                0xa00000c8                magvariation
                0xa00000cc                month
                0xa00000cd                Xfer_Buff_Full
                0xa00000ce                NMEA_Flag
                0xa00000cf                minute
                0xa00000d0                latitude_fixed
                0xa00000d4                milliseconds
                0xa00000d8                lower_index
                0xa00000dc                hour
                0xa00000e0                angle
                0xa00000e4                lon
                0xa00000e8                longitude
                0xa00000ec                satellites
                0xa00000f0                altitude
                0xa00000f4                longitude_fixed
                0xa00000f8                seconds
                0xa00000f9                fix
                0xa00000fa                NMEA_State
                0xa00000fc                longitudeDegrees
                0xa0000100                x_last
                0xa0000104                latitudeDegrees
                0xa0000108                year
                0xa000010c                latitude
                0xa0000110                day
                0xa0000114                speed
                0xa0000118                rx_nmea
                0xa000011c                HDOP
                0xa0000120                lat
                0xa0000121                mag
                0xa0000124                upper_index
 .scommon       0xa0000128       0xa0 build/default/production/main.o
                0xa0000128                projection
                0xa000012c                total_distance_r2
                0xa0000130                sum_lin_x
                0xa0000134                gravity_y
                0xa0000138                mag_unit_y
                0xa000013c                last_distance_z
                0xa0000140                acc_y
                0xa0000144                flag
                0xa0000148                mag_x
                0xa000014c                eul_pitch
                0xa0000150                mag_unit_z
                0xa0000154                eul_roll
                0xa0000158                gravity_z
                0xa000015c                magnitude
                0xa0000160                distance
                0xa0000164                gyr_x
                0xa0000168                gyr_z
                0xa000016c                correction_vector_z
                0xa0000170                sum_lin_z
                0xa0000174                i
                0xa0000178                mag_y
                0xa000017c                eul_heading
                0xa0000180                correction_vector_x
                0xa0000184                c
                0xa0000188                gyr_y
                0xa000018c                lin_acc_x
                0xa0000190                correction_vector_y
                0xa0000194                gravity_x
                0xa0000198                mag_z
                0xa000019c                acc_count
                0xa00001a0                last_distance_x
                0xa00001a4                mag_unit_x
                0xa00001a8                acc_x
                0xa00001ac                Buffer
                0xa00001b0                lin_acc_y
                0xa00001b4                lin_acc_z
                0xa00001b8                sum_lin_y
                0xa00001bc                last_distance_y
                0xa00001c0                acc_z
                0xa00001c4                heading
 .scommon       0xa00001c8        0x0 build/default/production/I2C.o
 .scommon       0xa00001c8        0x1 build/default/production/SPI.o
                0xa00001c8                rx
 *fill*         0xa00001c9        0x3 
 .scommon       0xa00001cc        0xb build/default/production/ILI9341.o
                0xa00001cc                font
                0xa00001d0                font2
                0xa00001d4                letter_spacing
                0xa00001d5                height
                0xa00001d6                width
 .scommon       0xa00001d7        0x0 build/default/production/BNO055.o
 .scommon       0xa00001d7        0x0 build/default/production/MT3339.o
 *fill*         0xa00001d7        0x1 
 .scommon       0xa00001d8        0x8 build/default/production/MAX17043.o
                0xa00001d8                batteryVolt
                0xa00001dc                batteryPer
 .scommon       0xa00001e0        0x3 build/default/production/BQ27441.o
                0xa00001e0                _deviceAddress
                0xa00001e1                _userConfigControl
                0xa00001e2                _sealFlag
 .scommon       0xa00001e3        0x0 build/default/production/I2C_new.o
                0xa00001e3                _sbss_end = .
                0xa00001e4                . = ALIGN (0x4)
 *fill*         0xa00001e3        0x1 

.bss            0xa00001e4      0x1b4
 *(.dynbss)
 *(COMMON)
 COMMON         0xa00001e4       0xaa build/default/production/Interrupts.o
                0xa00001e4                NMEA_Buffer_1
                0xa0000234                NMEA_Xfer_Buff
                0xa0000284                debug_buff
 *fill*         0xa000028e        0x2 
 COMMON         0xa0000290       0x8a build/default/production/main.o
                0xa0000290                buffer_1
                0xa00002cc                Recieve_Buffer
                0xa000030c                heading_Buffer
 *fill*         0xa000031a        0x2 
 COMMON         0xa000031c       0x5c build/default/production/MT3339.o
                0xa000031c                newGPRMC
                0xa0000344                newGPGGA
 COMMON         0xa0000378       0x1e build/default/production/I2C_new.o
                0xa0000378                I2C_RX_Buffer
                0xa0000398                . = ALIGN ((. != 0x0)?0x4:0x1)
 *fill*         0xa0000396        0x2 
                0xa0000398                . = ALIGN (0x4)
                0xa0000398                _end = .
                0xa0000398                _bss_end = .
                0x00010000                _bmxdudba_address = 0x10000
                0x00010000                _bmxdupba_address = 0x10000

/DISCARD/
 *(.pdr)
 *(.rel.dyn)
 *(.note.GNU-stack)
 *(.note.GNU-stack)
 *(.gnu_debuglink)
 *(.gnu.lto_*)
 *(.discard)

.gptab.sdata
 *(.gptab.data)
 *(.gptab.sdata)

.gptab.sbss
 *(.gptab.bss)
 *(.gptab.sbss)

.mdebug.abi32   0xa0000398        0x0
 *(.mdebug.abi32)
 .mdebug.abi32  0xa0000398        0x0 build/default/production/CONFIG.o
 .mdebug.abi32  0xa0000398        0x0 build/default/production/Interrupts.o
 .mdebug.abi32  0xa0000398        0x0 build/default/production/main.o
 .mdebug.abi32  0xa0000398        0x0 build/default/production/I2C.o
 .mdebug.abi32  0xa0000398        0x0 build/default/production/SPI.o
 .mdebug.abi32  0xa0000398        0x0 build/default/production/ILI9341.o
 .mdebug.abi32  0xa0000398        0x0 build/default/production/EUSART.o
 .mdebug.abi32  0xa0000398        0x0 build/default/production/Delay.o
 .mdebug.abi32  0xa0000398        0x0 build/default/production/BNO055.o
 .mdebug.abi32  0xa0000398        0x0 build/default/production/MT3339.o
 .mdebug.abi32  0xa0000398        0x0 build/default/production/MAX17043.o
 .mdebug.abi32  0xa0000398        0x0 build/default/production/BQ27441.o
 .mdebug.abi32  0xa0000398        0x0 build/default/production/I2C_new.o
 .mdebug.abi32  0xa0000398        0x0 e:/pic/bin/bin/../../lib/gcc/pic32mx/4.8.3\libgcc.a(floatunsisf.o)
 .mdebug.abi32  0xa0000398        0x0 e:/pic/bin/bin/../../lib/gcc/pic32mx/4.8.3/../../../../pic32mx/lib\libpic32.a(default-bootstrap-exception-handler.o)
 .mdebug.abi32  0xa0000398        0x0 e:/pic/bin/bin/../../lib/gcc/pic32mx/4.8.3/../../../../pic32mx/lib\libpic32.a(default-on-reset.o)
 .mdebug.abi32  0xa0000398        0x0 e:/pic/bin/bin/../../lib/gcc/pic32mx/4.8.3/../../../../pic32mx/lib\libpic32.a(default-on-bootstrap.o)
 .mdebug.abi32  0xa0000398        0x0 e:/pic/bin/bin/../../lib/gcc/pic32mx/4.8.3/../../../../pic32mx/lib\libpic32.a(default-general-exception-handler.o)
 .mdebug.abi32  0xa0000398        0x0 e:/pic/bin/bin/../../lib/gcc/pic32mx/4.8.3/../../../../pic32mx/lib\libpic32.a(defaultinterrupt.o)
 .mdebug.abi32  0xa0000398        0x0 e:/pic/bin/bin/../../lib/gcc/pic32mx/4.8.3/../../../../pic32mx/lib\liblega-c.a(strncpy.o)
 .mdebug.abi32  0xa0000398        0x0 e:/pic/bin/bin/../../lib/gcc/pic32mx/4.8.3/../../../../pic32mx/lib\liblega-c.a(strchr.o)
 .mdebug.abi32  0xa0000398        0x0 e:/pic/bin/bin/../../lib/gcc/pic32mx/4.8.3/../../../../pic32mx/lib\liblega-c.a(strstr.o)
 .mdebug.abi32  0xa0000398        0x0 e:/pic/bin/bin/../../lib/gcc/pic32mx/4.8.3/../../../../pic32mx/lib\liblega-c.a(atol.o)
 .mdebug.abi32  0xa0000398        0x0 e:/pic/bin/bin/../../lib/gcc/pic32mx/4.8.3/../../../../pic32mx/lib\liblega-c.a(atoi.o)
 .mdebug.abi32  0xa0000398        0x0 e:/pic/bin/bin/../../lib/gcc/pic32mx/4.8.3/../../../../pic32mx/lib\liblega-c.a(strtol.o)
 .mdebug.abi32  0xa0000398        0x0 e:/pic/bin/bin/../../lib/gcc/pic32mx/4.8.3/../../../../pic32mx/lib\liblega-c.a(sprintf_cdfFnopuxX.eo)
 .mdebug.abi32  0xa0000398        0x0 e:/pic/bin/bin/../../lib/gcc/pic32mx/4.8.3/../../../../pic32mx/lib\liblega-c.a(ctype.o)
 .mdebug.abi32  0xa0000398        0x0 e:/pic/bin/bin/../../lib/gcc/pic32mx/4.8.3/../../../../pic32mx/lib\liblega-c.a(errno.o)
 .mdebug.abi32  0xa0000398        0x0 e:/pic/bin/bin/../../lib/gcc/pic32mx/4.8.3/../../../../pic32mx/lib\liblega-c.a(_doprnt_cdfFnopuxX.eo)
 .mdebug.abi32  0xa0000398        0x0 e:/pic/bin/bin/../../lib/gcc/pic32mx/4.8.3/../../../../pic32mx/lib\liblega-c.a(_iobdata.o)
 .mdebug.abi32  0xa0000398        0x0 e:/pic/bin/bin/../../lib/gcc/pic32mx/4.8.3/../../../../pic32mx/lib\liblega-c.a(_iobfuncs.o)
 .mdebug.abi32  0xa0000398        0x0 e:/pic/bin/bin/../../lib/gcc/pic32mx/4.8.3/../../../../pic32mx/lib\liblega-c.a(_iobstring.o)
 .mdebug.abi32  0xa0000398        0x0 e:/pic/bin/bin/../../lib/gcc/pic32mx/4.8.3/../../../../pic32mx/lib\liblega-c.a(fputc.o)
 .mdebug.abi32  0xa0000398        0x0 e:/pic/bin/bin/../../lib/gcc/pic32mx/4.8.3/../../../../pic32mx/lib\libm.a(w_asinf.o)
 .mdebug.abi32  0xa0000398        0x0 e:/pic/bin/bin/../../lib/gcc/pic32mx/4.8.3/../../../../pic32mx/lib\libm.a(w_sqrtf.o)
 .mdebug.abi32  0xa0000398        0x0 e:/pic/bin/bin/../../lib/gcc/pic32mx/4.8.3/../../../../pic32mx/lib\libm.a(__strtod.o)
 .mdebug.abi32  0xa0000398        0x0 e:/pic/bin/bin/../../lib/gcc/pic32mx/4.8.3/../../../../pic32mx/lib\libm.a(s_lib_ver.o)
 .mdebug.abi32  0xa0000398        0x0 e:/pic/bin/bin/../../lib/gcc/pic32mx/4.8.3/../../../../pic32mx/lib\libe.a(_ldexp.o)
 .mdebug.abi32  0xa0000398        0x0 e:/pic/bin/bin/../../lib/gcc/pic32mx/4.8.3\libgcc.a(_lshrdi3.o)
 .mdebug.abi32  0xa0000398        0x0 e:/pic/bin/bin/../../lib/gcc/pic32mx/4.8.3\libgcc.a(_ashldi3.o)
 .mdebug.abi32  0xa0000398        0x0 e:/pic/bin/bin/../../lib/gcc/pic32mx/4.8.3\libgcc.a(_udivdi3.o)
 .mdebug.abi32  0xa0000398        0x0 e:/pic/bin/bin/../../lib/gcc/pic32mx/4.8.3\libgcc.a(_umoddi3.o)
 .mdebug.abi32  0xa0000398        0x0 e:/pic/bin/bin/../../lib/gcc/pic32mx/4.8.3/../../../../pic32mx/lib\libpic32.a(_mon_getc.o)
 .mdebug.abi32  0xa0000398        0x0 e:/pic/bin/bin/../../lib/gcc/pic32mx/4.8.3/../../../../pic32mx/lib\libpic32.a(_mon_write.o)
 .mdebug.abi32  0xa0000398        0x0 e:/pic/bin/bin/../../lib/gcc/pic32mx/4.8.3/../../../../pic32mx/lib\libpic32.a(xc32_uart.o)
 .mdebug.abi32  0xa0000398        0x0 e:/pic/bin/bin/../../lib/gcc/pic32mx/4.8.3/../../../../pic32mx/lib\libpic32.a(_mon_putc.o)

.mdebug.abiN32
 *(.mdebug.abiN32)

.mdebug.abi64
 *(.mdebug.abi64)

.mdebug.abiO64
 *(.mdebug.abiO64)

.mdebug.eabi32
 *(.mdebug.eabi32)

.mdebug.eabi64
 *(.mdebug.eabi64)

.gcc_compiled_long32
 *(.gcc_compiled_long32)

.gcc_compiled_long64
 *(.gcc_compiled_long64)

.stab
 *(.stab)

.stabstr
 *(.stabstr)

.stab.excl
 *(.stab.excl)

.stab.exclstr
 *(.stab.exclstr)

.stab.index
 *(.stab.index)

.stab.indexstr
 *(.stab.indexstr)

.comment        0x00000000      0x5bd
 *(.comment)
 .comment       0x00000000       0x3c build/default/production/CONFIG.o
                                 0x3d (size before relaxing)
 .comment       0x00000000       0x3d build/default/production/Interrupts.o
 .comment       0x00000000       0x3d build/default/production/main.o
 .comment       0x00000000       0x3d build/default/production/I2C.o
 .comment       0x00000000       0x3d build/default/production/SPI.o
 .comment       0x00000000       0x3d build/default/production/ILI9341.o
 .comment       0x00000000       0x3d build/default/production/EUSART.o
 .comment       0x00000000       0x3d build/default/production/Delay.o
 .comment       0x00000000       0x3d build/default/production/BNO055.o
 .comment       0x00000000       0x3d build/default/production/MT3339.o
 .comment       0x00000000       0x3d build/default/production/MAX17043.o
 .comment       0x00000000       0x3d build/default/production/BQ27441.o
 .comment       0x00000000       0x3d build/default/production/I2C_new.o
 .comment       0x00000000       0x3d e:/pic/bin/bin/../../lib/gcc/pic32mx/4.8.3\libgcc.a(floatunsisf.o)
 .comment       0x0000003c       0x18 e:/pic/bin/bin/../../lib/gcc/pic32mx/4.8.3/../../../../pic32mx/lib\libpic32.a(memset.o)
                                 0x19 (size before relaxing)
 .comment       0x00000054       0x19 e:/pic/bin/bin/../../lib/gcc/pic32mx/4.8.3/../../../../pic32mx/lib\libpic32.a(strlen.o)
                                 0x1a (size before relaxing)
 .comment       0x00000000       0x3d e:/pic/bin/bin/../../lib/gcc/pic32mx/4.8.3/../../../../pic32mx/lib\libpic32.a(default-bootstrap-exception-handler.o)
 .comment       0x00000000       0x3d e:/pic/bin/bin/../../lib/gcc/pic32mx/4.8.3/../../../../pic32mx/lib\libpic32.a(default-on-reset.o)
 .comment       0x00000000       0x3d e:/pic/bin/bin/../../lib/gcc/pic32mx/4.8.3/../../../../pic32mx/lib\libpic32.a(default-on-bootstrap.o)
 .comment       0x00000000       0x3d e:/pic/bin/bin/../../lib/gcc/pic32mx/4.8.3/../../../../pic32mx/lib\libpic32.a(default-general-exception-handler.o)
 .comment       0x00000000       0x3d e:/pic/bin/bin/../../lib/gcc/pic32mx/4.8.3/../../../../pic32mx/lib\libpic32.a(defaultinterrupt.o)
 .comment       0x0000006d       0x50 e:/pic/bin/bin/../../lib/gcc/pic32mx/4.8.3/../../../../pic32mx/lib\liblega-c.a(strncpy.o)
                                 0x8d (size before relaxing)
 .comment       0x000000bd       0x4f e:/pic/bin/bin/../../lib/gcc/pic32mx/4.8.3/../../../../pic32mx/lib\liblega-c.a(strchr.o)
                                 0x8c (size before relaxing)
 .comment       0x0000010c       0x4f e:/pic/bin/bin/../../lib/gcc/pic32mx/4.8.3/../../../../pic32mx/lib\liblega-c.a(strstr.o)
                                 0x8c (size before relaxing)
 .comment       0x0000015b       0x4d e:/pic/bin/bin/../../lib/gcc/pic32mx/4.8.3/../../../../pic32mx/lib\liblega-c.a(atol.o)
                                 0x8a (size before relaxing)
 .comment       0x000001a8       0x4d e:/pic/bin/bin/../../lib/gcc/pic32mx/4.8.3/../../../../pic32mx/lib\liblega-c.a(atoi.o)
                                 0x8a (size before relaxing)
 .comment       0x000001f5       0x4f e:/pic/bin/bin/../../lib/gcc/pic32mx/4.8.3/../../../../pic32mx/lib\liblega-c.a(strtol.o)
                                 0x8c (size before relaxing)
 .comment       0x00000244       0x52 e:/pic/bin/bin/../../lib/gcc/pic32mx/4.8.3/../../../../pic32mx/lib\liblega-c.a(sprintf_cdfFnopuxX.eo)
                                 0x8f (size before relaxing)
 .comment       0x00000296       0x4e e:/pic/bin/bin/../../lib/gcc/pic32mx/4.8.3/../../../../pic32mx/lib\liblega-c.a(ctype.o)
                                 0x8b (size before relaxing)
 .comment       0x000002e4       0x4e e:/pic/bin/bin/../../lib/gcc/pic32mx/4.8.3/../../../../pic32mx/lib\liblega-c.a(errno.o)
                                 0x8b (size before relaxing)
 .comment       0x00000332       0x52 e:/pic/bin/bin/../../lib/gcc/pic32mx/4.8.3/../../../../pic32mx/lib\liblega-c.a(_doprnt_cdfFnopuxX.eo)
                                 0x8f (size before relaxing)
 .comment       0x00000384       0x53 e:/pic/bin/bin/../../lib/gcc/pic32mx/4.8.3/../../../../pic32mx/lib\liblega-c.a(_iobdata.o)
                                 0x90 (size before relaxing)
 .comment       0x000003d7       0x54 e:/pic/bin/bin/../../lib/gcc/pic32mx/4.8.3/../../../../pic32mx/lib\liblega-c.a(_iobfuncs.o)
                                 0x91 (size before relaxing)
 .comment       0x0000042b       0x55 e:/pic/bin/bin/../../lib/gcc/pic32mx/4.8.3/../../../../pic32mx/lib\liblega-c.a(_iobstring.o)
                                 0x92 (size before relaxing)
 .comment       0x00000480       0x50 e:/pic/bin/bin/../../lib/gcc/pic32mx/4.8.3/../../../../pic32mx/lib\liblega-c.a(fputc.o)
                                 0x8d (size before relaxing)
 .comment       0x00000000       0x3d e:/pic/bin/bin/../../lib/gcc/pic32mx/4.8.3/../../../../pic32mx/lib\libm.a(w_asinf.o)
 .comment       0x00000000       0x3d e:/pic/bin/bin/../../lib/gcc/pic32mx/4.8.3/../../../../pic32mx/lib\libm.a(w_sqrtf.o)
 .comment       0x000004d0       0x9d e:/pic/bin/bin/../../lib/gcc/pic32mx/4.8.3/../../../../pic32mx/lib\libm.a(__strtod.o)
                                 0xda (size before relaxing)
 .comment       0x00000000       0x3d e:/pic/bin/bin/../../lib/gcc/pic32mx/4.8.3/../../../../pic32mx/lib\libm.a(s_lib_ver.o)
 .comment       0x0000056d       0x50 e:/pic/bin/bin/../../lib/gcc/pic32mx/4.8.3/../../../../pic32mx/lib\libe.a(_ldexp.o)
                                 0xdb (size before relaxing)
 .comment       0x00000000       0x3d e:/pic/bin/bin/../../lib/gcc/pic32mx/4.8.3\libgcc.a(_lshrdi3.o)
 .comment       0x00000000       0x3d e:/pic/bin/bin/../../lib/gcc/pic32mx/4.8.3\libgcc.a(_ashldi3.o)
 .comment       0x00000000       0x3d e:/pic/bin/bin/../../lib/gcc/pic32mx/4.8.3\libgcc.a(_udivdi3.o)
 .comment       0x00000000       0x3d e:/pic/bin/bin/../../lib/gcc/pic32mx/4.8.3\libgcc.a(_umoddi3.o)
 .comment       0x00000000       0x3d e:/pic/bin/bin/../../lib/gcc/pic32mx/4.8.3/../../../../pic32mx/lib\libpic32.a(_mon_getc.o)
 .comment       0x00000000       0x3d e:/pic/bin/bin/../../lib/gcc/pic32mx/4.8.3/../../../../pic32mx/lib\libpic32.a(_mon_write.o)
 .comment       0x00000000       0x3d e:/pic/bin/bin/../../lib/gcc/pic32mx/4.8.3/../../../../pic32mx/lib\libpic32.a(xc32_uart.o)
 .comment       0x00000000       0x3d e:/pic/bin/bin/../../lib/gcc/pic32mx/4.8.3/../../../../pic32mx/lib\libpic32.a(_mon_putc.o)

.debug
 *(.debug)

.line
 *(.line)

.debug_srcinfo
 *(.debug_srcinfo)

.debug_sfnames
 *(.debug_sfnames)

.debug_aranges  0x00000000      0x3c0
 *(.debug_aranges)
 .debug_aranges
                0x00000000       0x20 build/default/production/CONFIG.o
 .debug_aranges
                0x00000020       0x20 build/default/production/Interrupts.o
 .debug_aranges
                0x00000040       0x20 build/default/production/main.o
 .debug_aranges
                0x00000060       0x20 build/default/production/I2C.o
 .debug_aranges
                0x00000080       0x20 build/default/production/SPI.o
 .debug_aranges
                0x000000a0       0x20 build/default/production/ILI9341.o
 .debug_aranges
                0x000000c0       0x20 build/default/production/EUSART.o
 .debug_aranges
                0x000000e0       0x20 build/default/production/Delay.o
 .debug_aranges
                0x00000100       0x20 build/default/production/BNO055.o
 .debug_aranges
                0x00000120       0x20 build/default/production/MT3339.o
 .debug_aranges
                0x00000140       0x20 build/default/production/MAX17043.o
 .debug_aranges
                0x00000160       0x20 build/default/production/BQ27441.o
 .debug_aranges
                0x00000180       0x20 build/default/production/I2C_new.o
 .debug_aranges
                0x000001a0       0x20 e:/pic/bin/bin/../../lib/gcc/pic32mx/4.8.3\libgcc.a(floatunsisf.o)
 .debug_aranges
                0x000001c0       0x20 e:/pic/bin/bin/../../lib/gcc/pic32mx/4.8.3/../../../../pic32mx/lib\libpic32.a(default-bootstrap-exception-handler.o)
 .debug_aranges
                0x000001e0       0x20 e:/pic/bin/bin/../../lib/gcc/pic32mx/4.8.3/../../../../pic32mx/lib\libpic32.a(default-on-reset.o)
 .debug_aranges
                0x00000200       0x20 e:/pic/bin/bin/../../lib/gcc/pic32mx/4.8.3/../../../../pic32mx/lib\libpic32.a(default-on-bootstrap.o)
 .debug_aranges
                0x00000220       0x20 e:/pic/bin/bin/../../lib/gcc/pic32mx/4.8.3/../../../../pic32mx/lib\libpic32.a(default-general-exception-handler.o)
 .debug_aranges
                0x00000240       0x20 e:/pic/bin/bin/../../lib/gcc/pic32mx/4.8.3/../../../../pic32mx/lib\libpic32.a(defaultinterrupt.o)
 .debug_aranges
                0x00000260       0x20 e:/pic/bin/bin/../../lib/gcc/pic32mx/4.8.3/../../../../pic32mx/lib\libm.a(w_asinf.o)
 .debug_aranges
                0x00000280       0x20 e:/pic/bin/bin/../../lib/gcc/pic32mx/4.8.3/../../../../pic32mx/lib\libm.a(w_sqrtf.o)
 .debug_aranges
                0x000002a0       0x20 e:/pic/bin/bin/../../lib/gcc/pic32mx/4.8.3/../../../../pic32mx/lib\libm.a(__strtod.o)
 .debug_aranges
                0x000002c0       0x20 e:/pic/bin/bin/../../lib/gcc/pic32mx/4.8.3/../../../../pic32mx/lib\libe.a(_ldexp.o)
 .debug_aranges
                0x000002e0       0x20 e:/pic/bin/bin/../../lib/gcc/pic32mx/4.8.3\libgcc.a(_lshrdi3.o)
 .debug_aranges
                0x00000300       0x20 e:/pic/bin/bin/../../lib/gcc/pic32mx/4.8.3\libgcc.a(_ashldi3.o)
 .debug_aranges
                0x00000320       0x20 e:/pic/bin/bin/../../lib/gcc/pic32mx/4.8.3\libgcc.a(_udivdi3.o)
 .debug_aranges
                0x00000340       0x20 e:/pic/bin/bin/../../lib/gcc/pic32mx/4.8.3\libgcc.a(_umoddi3.o)
 .debug_aranges
                0x00000360       0x20 e:/pic/bin/bin/../../lib/gcc/pic32mx/4.8.3/../../../../pic32mx/lib\libpic32.a(_mon_getc.o)
 .debug_aranges
                0x00000380       0x20 e:/pic/bin/bin/../../lib/gcc/pic32mx/4.8.3/../../../../pic32mx/lib\libpic32.a(_mon_write.o)
 .debug_aranges
                0x000003a0       0x20 e:/pic/bin/bin/../../lib/gcc/pic32mx/4.8.3/../../../../pic32mx/lib\libpic32.a(_mon_putc.o)

.debug_pubnames
 *(.debug_pubnames)

.debug_info     0x00000000     0xd5a1
 *(.debug_info .gnu.linkonce.wi.*)
 .debug_info    0x00000000      0xc6a build/default/production/CONFIG.o
 .debug_info    0x00000c6a      0xb11 build/default/production/Interrupts.o
 .debug_info    0x0000177b      0xb93 build/default/production/main.o
 .debug_info    0x0000230e     0x163e build/default/production/I2C.o
 .debug_info    0x0000394c      0xf5d build/default/production/SPI.o
 .debug_info    0x000048a9     0x12c9 build/default/production/ILI9341.o
 .debug_info    0x00005b72      0xd99 build/default/production/EUSART.o
 .debug_info    0x0000690b      0x686 build/default/production/Delay.o
 .debug_info    0x00006f91      0xa4c build/default/production/BNO055.o
 .debug_info    0x000079dd     0x102f build/default/production/MT3339.o
 .debug_info    0x00008a0c      0x7c0 build/default/production/MAX17043.o
 .debug_info    0x000091cc     0x11e4 build/default/production/BQ27441.o
 .debug_info    0x0000a3b0     0x11a2 build/default/production/I2C_new.o
 .debug_info    0x0000b552      0x12c e:/pic/bin/bin/../../lib/gcc/pic32mx/4.8.3\libgcc.a(floatunsisf.o)
 .debug_info    0x0000b67e       0xf2 e:/pic/bin/bin/../../lib/gcc/pic32mx/4.8.3/../../../../pic32mx/lib\libpic32.a(default-bootstrap-exception-handler.o)
 .debug_info    0x0000b770       0xcb e:/pic/bin/bin/../../lib/gcc/pic32mx/4.8.3/../../../../pic32mx/lib\libpic32.a(default-on-reset.o)
 .debug_info    0x0000b83b       0xd3 e:/pic/bin/bin/../../lib/gcc/pic32mx/4.8.3/../../../../pic32mx/lib\libpic32.a(default-on-bootstrap.o)
 .debug_info    0x0000b90e       0xee e:/pic/bin/bin/../../lib/gcc/pic32mx/4.8.3/../../../../pic32mx/lib\libpic32.a(default-general-exception-handler.o)
 .debug_info    0x0000b9fc       0xe5 e:/pic/bin/bin/../../lib/gcc/pic32mx/4.8.3/../../../../pic32mx/lib\libpic32.a(defaultinterrupt.o)
 .debug_info    0x0000bae1       0xbc e:/pic/bin/bin/../../lib/gcc/pic32mx/4.8.3/../../../../pic32mx/lib\libm.a(w_asinf.o)
 .debug_info    0x0000bb9d       0xbc e:/pic/bin/bin/../../lib/gcc/pic32mx/4.8.3/../../../../pic32mx/lib\libm.a(w_sqrtf.o)
 .debug_info    0x0000bc59       0xd6 e:/pic/bin/bin/../../lib/gcc/pic32mx/4.8.3/../../../../pic32mx/lib\libm.a(__strtod.o)
 .debug_info    0x0000bd2f       0xd7 e:/pic/bin/bin/../../lib/gcc/pic32mx/4.8.3/../../../../pic32mx/lib\libe.a(_ldexp.o)
 .debug_info    0x0000be06      0x323 e:/pic/bin/bin/../../lib/gcc/pic32mx/4.8.3\libgcc.a(_lshrdi3.o)
 .debug_info    0x0000c129      0x326 e:/pic/bin/bin/../../lib/gcc/pic32mx/4.8.3\libgcc.a(_ashldi3.o)
 .debug_info    0x0000c44f      0x762 e:/pic/bin/bin/../../lib/gcc/pic32mx/4.8.3\libgcc.a(_udivdi3.o)
 .debug_info    0x0000cbb1      0x79f e:/pic/bin/bin/../../lib/gcc/pic32mx/4.8.3\libgcc.a(_umoddi3.o)
 .debug_info    0x0000d350       0xc5 e:/pic/bin/bin/../../lib/gcc/pic32mx/4.8.3/../../../../pic32mx/lib\libpic32.a(_mon_getc.o)
 .debug_info    0x0000d415       0xc7 e:/pic/bin/bin/../../lib/gcc/pic32mx/4.8.3/../../../../pic32mx/lib\libpic32.a(_mon_write.o)
 .debug_info    0x0000d4dc       0xc5 e:/pic/bin/bin/../../lib/gcc/pic32mx/4.8.3/../../../../pic32mx/lib\libpic32.a(_mon_putc.o)

.debug_abbrev   0x00000000     0x16e8
 *(.debug_abbrev)
 .debug_abbrev  0x00000000       0xc9 build/default/production/CONFIG.o
 .debug_abbrev  0x000000c9       0xe7 build/default/production/Interrupts.o
 .debug_abbrev  0x000001b0       0xa0 build/default/production/main.o
 .debug_abbrev  0x00000250      0x187 build/default/production/I2C.o
 .debug_abbrev  0x000003d7      0x123 build/default/production/SPI.o
 .debug_abbrev  0x000004fa      0x20a build/default/production/ILI9341.o
 .debug_abbrev  0x00000704      0x12d build/default/production/EUSART.o
 .debug_abbrev  0x00000831      0x148 build/default/production/Delay.o
 .debug_abbrev  0x00000979      0x17a build/default/production/BNO055.o
 .debug_abbrev  0x00000af3      0x224 build/default/production/MT3339.o
 .debug_abbrev  0x00000d17       0x9e build/default/production/MAX17043.o
 .debug_abbrev  0x00000db5      0x16e build/default/production/BQ27441.o
 .debug_abbrev  0x00000f23      0x14b build/default/production/I2C_new.o
 .debug_abbrev  0x0000106e       0x62 e:/pic/bin/bin/../../lib/gcc/pic32mx/4.8.3\libgcc.a(floatunsisf.o)
 .debug_abbrev  0x000010d0       0x28 e:/pic/bin/bin/../../lib/gcc/pic32mx/4.8.3/../../../../pic32mx/lib\libpic32.a(default-bootstrap-exception-handler.o)
 .debug_abbrev  0x000010f8       0x28 e:/pic/bin/bin/../../lib/gcc/pic32mx/4.8.3/../../../../pic32mx/lib\libpic32.a(default-on-reset.o)
 .debug_abbrev  0x00001120       0x28 e:/pic/bin/bin/../../lib/gcc/pic32mx/4.8.3/../../../../pic32mx/lib\libpic32.a(default-on-bootstrap.o)
 .debug_abbrev  0x00001148       0x28 e:/pic/bin/bin/../../lib/gcc/pic32mx/4.8.3/../../../../pic32mx/lib\libpic32.a(default-general-exception-handler.o)
 .debug_abbrev  0x00001170       0x28 e:/pic/bin/bin/../../lib/gcc/pic32mx/4.8.3/../../../../pic32mx/lib\libpic32.a(defaultinterrupt.o)
 .debug_abbrev  0x00001198       0x28 e:/pic/bin/bin/../../lib/gcc/pic32mx/4.8.3/../../../../pic32mx/lib\libm.a(w_asinf.o)
 .debug_abbrev  0x000011c0       0x28 e:/pic/bin/bin/../../lib/gcc/pic32mx/4.8.3/../../../../pic32mx/lib\libm.a(w_sqrtf.o)
 .debug_abbrev  0x000011e8       0x35 e:/pic/bin/bin/../../lib/gcc/pic32mx/4.8.3/../../../../pic32mx/lib\libm.a(__strtod.o)
 .debug_abbrev  0x0000121d       0x35 e:/pic/bin/bin/../../lib/gcc/pic32mx/4.8.3/../../../../pic32mx/lib\libe.a(_ldexp.o)
 .debug_abbrev  0x00001252       0xd7 e:/pic/bin/bin/../../lib/gcc/pic32mx/4.8.3\libgcc.a(_lshrdi3.o)
 .debug_abbrev  0x00001329       0xc8 e:/pic/bin/bin/../../lib/gcc/pic32mx/4.8.3\libgcc.a(_ashldi3.o)
 .debug_abbrev  0x000013f1      0x138 e:/pic/bin/bin/../../lib/gcc/pic32mx/4.8.3\libgcc.a(_udivdi3.o)
 .debug_abbrev  0x00001529      0x147 e:/pic/bin/bin/../../lib/gcc/pic32mx/4.8.3\libgcc.a(_umoddi3.o)
 .debug_abbrev  0x00001670       0x28 e:/pic/bin/bin/../../lib/gcc/pic32mx/4.8.3/../../../../pic32mx/lib\libpic32.a(_mon_getc.o)
 .debug_abbrev  0x00001698       0x28 e:/pic/bin/bin/../../lib/gcc/pic32mx/4.8.3/../../../../pic32mx/lib\libpic32.a(_mon_write.o)
 .debug_abbrev  0x000016c0       0x28 e:/pic/bin/bin/../../lib/gcc/pic32mx/4.8.3/../../../../pic32mx/lib\libpic32.a(_mon_putc.o)

.debug_line     0x00000000     0x21e9
 *(.debug_line)
 .debug_line    0x00000000      0x103 build/default/production/CONFIG.o
 .debug_line    0x00000103       0xfd build/default/production/Interrupts.o
 .debug_line    0x00000200      0x111 build/default/production/main.o
 .debug_line    0x00000311      0x217 build/default/production/I2C.o
 .debug_line    0x00000528       0xfd build/default/production/SPI.o
 .debug_line    0x00000625      0x458 build/default/production/ILI9341.o
 .debug_line    0x00000a7d      0x138 build/default/production/EUSART.o
 .debug_line    0x00000bb5       0xf0 build/default/production/Delay.o
 .debug_line    0x00000ca5      0x22b build/default/production/BNO055.o
 .debug_line    0x00000ed0      0x3ee build/default/production/MT3339.o
 .debug_line    0x000012be       0xd6 build/default/production/MAX17043.o
 .debug_line    0x00001394      0x200 build/default/production/BQ27441.o
 .debug_line    0x00001594      0x18a build/default/production/I2C_new.o
 .debug_line    0x0000171e       0x97 e:/pic/bin/bin/../../lib/gcc/pic32mx/4.8.3\libgcc.a(floatunsisf.o)
 .debug_line    0x000017b5       0xa4 e:/pic/bin/bin/../../lib/gcc/pic32mx/4.8.3/../../../../pic32mx/lib\libpic32.a(default-bootstrap-exception-handler.o)
 .debug_line    0x00001859       0x91 e:/pic/bin/bin/../../lib/gcc/pic32mx/4.8.3/../../../../pic32mx/lib\libpic32.a(default-on-reset.o)
 .debug_line    0x000018ea       0x95 e:/pic/bin/bin/../../lib/gcc/pic32mx/4.8.3/../../../../pic32mx/lib\libpic32.a(default-on-bootstrap.o)
 .debug_line    0x0000197f       0xa2 e:/pic/bin/bin/../../lib/gcc/pic32mx/4.8.3/../../../../pic32mx/lib\libpic32.a(default-general-exception-handler.o)
 .debug_line    0x00001a21       0xa3 e:/pic/bin/bin/../../lib/gcc/pic32mx/4.8.3/../../../../pic32mx/lib\libpic32.a(defaultinterrupt.o)
 .debug_line    0x00001ac4       0x85 e:/pic/bin/bin/../../lib/gcc/pic32mx/4.8.3/../../../../pic32mx/lib\libm.a(w_asinf.o)
 .debug_line    0x00001b49       0x85 e:/pic/bin/bin/../../lib/gcc/pic32mx/4.8.3/../../../../pic32mx/lib\libm.a(w_sqrtf.o)
 .debug_line    0x00001bce       0x86 e:/pic/bin/bin/../../lib/gcc/pic32mx/4.8.3/../../../../pic32mx/lib\libm.a(__strtod.o)
 .debug_line    0x00001c54        0x0 e:/pic/bin/bin/../../lib/gcc/pic32mx/4.8.3/../../../../pic32mx/lib\libm.a(s_lib_ver.o)
 .debug_line    0x00001c54       0xa0 e:/pic/bin/bin/../../lib/gcc/pic32mx/4.8.3/../../../../pic32mx/lib\libe.a(_ldexp.o)
 .debug_line    0x00001cf4       0xa8 e:/pic/bin/bin/../../lib/gcc/pic32mx/4.8.3\libgcc.a(_lshrdi3.o)
 .debug_line    0x00001d9c       0xa8 e:/pic/bin/bin/../../lib/gcc/pic32mx/4.8.3\libgcc.a(_ashldi3.o)
 .debug_line    0x00001e44       0xfa e:/pic/bin/bin/../../lib/gcc/pic32mx/4.8.3\libgcc.a(_udivdi3.o)
 .debug_line    0x00001f3e      0x10c e:/pic/bin/bin/../../lib/gcc/pic32mx/4.8.3\libgcc.a(_umoddi3.o)
 .debug_line    0x0000204a       0x8a e:/pic/bin/bin/../../lib/gcc/pic32mx/4.8.3/../../../../pic32mx/lib\libpic32.a(_mon_getc.o)
 .debug_line    0x000020d4       0x8b e:/pic/bin/bin/../../lib/gcc/pic32mx/4.8.3/../../../../pic32mx/lib\libpic32.a(_mon_write.o)
 .debug_line    0x0000215f        0x0 e:/pic/bin/bin/../../lib/gcc/pic32mx/4.8.3/../../../../pic32mx/lib\libpic32.a(xc32_uart.o)
 .debug_line    0x0000215f       0x8a e:/pic/bin/bin/../../lib/gcc/pic32mx/4.8.3/../../../../pic32mx/lib\libpic32.a(_mon_putc.o)

.debug_frame    0x00000000     0x13a8
 *(.debug_frame)
 .debug_frame   0x00000000       0x8c build/default/production/CONFIG.o
 .debug_frame   0x0000008c       0x58 build/default/production/Interrupts.o
 .debug_frame   0x000000e4       0x6c build/default/production/main.o
 .debug_frame   0x00000150      0x144 build/default/production/I2C.o
 .debug_frame   0x00000294       0x88 build/default/production/SPI.o
 .debug_frame   0x0000031c      0x3cc build/default/production/ILI9341.o
 .debug_frame   0x000006e8       0xb0 build/default/production/EUSART.o
 .debug_frame   0x00000798       0xd8 build/default/production/Delay.o
 .debug_frame   0x00000870      0x224 build/default/production/BNO055.o
 .debug_frame   0x00000a94      0x118 build/default/production/MT3339.o
 .debug_frame   0x00000bac       0x90 build/default/production/MAX17043.o
 .debug_frame   0x00000c3c      0x450 build/default/production/BQ27441.o
 .debug_frame   0x0000108c       0x8c build/default/production/I2C_new.o
 .debug_frame   0x00001118       0x28 e:/pic/bin/bin/../../lib/gcc/pic32mx/4.8.3\libgcc.a(floatunsisf.o)
 .debug_frame   0x00001140       0x2c e:/pic/bin/bin/../../lib/gcc/pic32mx/4.8.3/../../../../pic32mx/lib\libpic32.a(default-bootstrap-exception-handler.o)
 .debug_frame   0x0000116c       0x20 e:/pic/bin/bin/../../lib/gcc/pic32mx/4.8.3/../../../../pic32mx/lib\libpic32.a(default-on-reset.o)
 .debug_frame   0x0000118c       0x20 e:/pic/bin/bin/../../lib/gcc/pic32mx/4.8.3/../../../../pic32mx/lib\libpic32.a(default-on-bootstrap.o)
 .debug_frame   0x000011ac       0x2c e:/pic/bin/bin/../../lib/gcc/pic32mx/4.8.3/../../../../pic32mx/lib\libpic32.a(default-general-exception-handler.o)
 .debug_frame   0x000011d8       0x20 e:/pic/bin/bin/../../lib/gcc/pic32mx/4.8.3/../../../../pic32mx/lib\libpic32.a(defaultinterrupt.o)
 .debug_frame   0x000011f8       0x28 e:/pic/bin/bin/../../lib/gcc/pic32mx/4.8.3/../../../../pic32mx/lib\libm.a(w_asinf.o)
 .debug_frame   0x00001220       0x28 e:/pic/bin/bin/../../lib/gcc/pic32mx/4.8.3/../../../../pic32mx/lib\libm.a(w_sqrtf.o)
 .debug_frame   0x00001248       0x38 e:/pic/bin/bin/../../lib/gcc/pic32mx/4.8.3/../../../../pic32mx/lib\libm.a(__strtod.o)
 .debug_frame   0x00001280       0x2c e:/pic/bin/bin/../../lib/gcc/pic32mx/4.8.3/../../../../pic32mx/lib\libe.a(_ldexp.o)
 .debug_frame   0x000012ac       0x20 e:/pic/bin/bin/../../lib/gcc/pic32mx/4.8.3\libgcc.a(_lshrdi3.o)
 .debug_frame   0x000012cc       0x20 e:/pic/bin/bin/../../lib/gcc/pic32mx/4.8.3\libgcc.a(_ashldi3.o)
 .debug_frame   0x000012ec       0x20 e:/pic/bin/bin/../../lib/gcc/pic32mx/4.8.3\libgcc.a(_udivdi3.o)
 .debug_frame   0x0000130c       0x20 e:/pic/bin/bin/../../lib/gcc/pic32mx/4.8.3\libgcc.a(_umoddi3.o)
 .debug_frame   0x0000132c       0x28 e:/pic/bin/bin/../../lib/gcc/pic32mx/4.8.3/../../../../pic32mx/lib\libpic32.a(_mon_getc.o)
 .debug_frame   0x00001354       0x2c e:/pic/bin/bin/../../lib/gcc/pic32mx/4.8.3/../../../../pic32mx/lib\libpic32.a(_mon_write.o)
 .debug_frame   0x00001380       0x28 e:/pic/bin/bin/../../lib/gcc/pic32mx/4.8.3/../../../../pic32mx/lib\libpic32.a(_mon_putc.o)

.debug_str      0x00000000      0x114
 *(.debug_str)
 .debug_str     0x00000000        0x0 build/default/production/CONFIG.o
 .debug_str     0x00000000        0x0 build/default/production/Interrupts.o
 .debug_str     0x00000000        0x0 build/default/production/main.o
 .debug_str     0x00000000       0x13 build/default/production/I2C.o
 .debug_str     0x00000013        0x0 build/default/production/SPI.o
 .debug_str     0x00000013       0x2e build/default/production/ILI9341.o
 .debug_str     0x00000041       0x2d build/default/production/EUSART.o
 .debug_str     0x0000006e        0x0 build/default/production/Delay.o
 .debug_str     0x0000006e       0x19 build/default/production/BNO055.o
 .debug_str     0x00000087       0x33 build/default/production/MT3339.o
 .debug_str     0x000000ba        0x0 build/default/production/MAX17043.o
 .debug_str     0x000000ba       0x45 build/default/production/BQ27441.o
 .debug_str     0x000000ff       0x15 build/default/production/I2C_new.o
 .debug_str     0x00000114        0x0 e:/pic/bin/bin/../../lib/gcc/pic32mx/4.8.3\libgcc.a(floatunsisf.o)
 .debug_str     0x00000114        0x0 e:/pic/bin/bin/../../lib/gcc/pic32mx/4.8.3/../../../../pic32mx/lib\libpic32.a(default-bootstrap-exception-handler.o)
 .debug_str     0x00000114        0x0 e:/pic/bin/bin/../../lib/gcc/pic32mx/4.8.3/../../../../pic32mx/lib\libpic32.a(default-on-reset.o)
 .debug_str     0x00000114        0x0 e:/pic/bin/bin/../../lib/gcc/pic32mx/4.8.3/../../../../pic32mx/lib\libpic32.a(default-on-bootstrap.o)
 .debug_str     0x00000114        0x0 e:/pic/bin/bin/../../lib/gcc/pic32mx/4.8.3/../../../../pic32mx/lib\libpic32.a(default-general-exception-handler.o)
 .debug_str     0x00000114        0x0 e:/pic/bin/bin/../../lib/gcc/pic32mx/4.8.3/../../../../pic32mx/lib\libpic32.a(defaultinterrupt.o)
 .debug_str     0x00000114        0x0 e:/pic/bin/bin/../../lib/gcc/pic32mx/4.8.3/../../../../pic32mx/lib\libm.a(w_asinf.o)
 .debug_str     0x00000114        0x0 e:/pic/bin/bin/../../lib/gcc/pic32mx/4.8.3/../../../../pic32mx/lib\libm.a(w_sqrtf.o)
 .debug_str     0x00000114        0x0 e:/pic/bin/bin/../../lib/gcc/pic32mx/4.8.3/../../../../pic32mx/lib\libm.a(__strtod.o)
 .debug_str     0x00000114        0x0 e:/pic/bin/bin/../../lib/gcc/pic32mx/4.8.3/../../../../pic32mx/lib\libm.a(s_lib_ver.o)
 .debug_str     0x00000114        0x0 e:/pic/bin/bin/../../lib/gcc/pic32mx/4.8.3/../../../../pic32mx/lib\libe.a(_ldexp.o)
 .debug_str     0x00000114        0x0 e:/pic/bin/bin/../../lib/gcc/pic32mx/4.8.3\libgcc.a(_lshrdi3.o)
 .debug_str     0x00000114        0x0 e:/pic/bin/bin/../../lib/gcc/pic32mx/4.8.3\libgcc.a(_ashldi3.o)
 .debug_str     0x00000114        0x0 e:/pic/bin/bin/../../lib/gcc/pic32mx/4.8.3\libgcc.a(_udivdi3.o)
 .debug_str     0x00000114        0x0 e:/pic/bin/bin/../../lib/gcc/pic32mx/4.8.3\libgcc.a(_umoddi3.o)
 .debug_str     0x00000114        0x0 e:/pic/bin/bin/../../lib/gcc/pic32mx/4.8.3/../../../../pic32mx/lib\libpic32.a(_mon_getc.o)
 .debug_str     0x00000114        0x0 e:/pic/bin/bin/../../lib/gcc/pic32mx/4.8.3/../../../../pic32mx/lib\libpic32.a(_mon_write.o)
 .debug_str     0x00000114        0x0 e:/pic/bin/bin/../../lib/gcc/pic32mx/4.8.3/../../../../pic32mx/lib\libpic32.a(xc32_uart.o)
 .debug_str     0x00000114        0x0 e:/pic/bin/bin/../../lib/gcc/pic32mx/4.8.3/../../../../pic32mx/lib\libpic32.a(_mon_putc.o)

.debug_loc      0x00000000     0x1790
 *(.debug_loc)
 .debug_loc     0x00000000       0x74 e:/pic/bin/bin/../../lib/gcc/pic32mx/4.8.3\libgcc.a(floatunsisf.o)
 .debug_loc     0x00000074       0x2c e:/pic/bin/bin/../../lib/gcc/pic32mx/4.8.3/../../../../pic32mx/lib\libpic32.a(default-bootstrap-exception-handler.o)
 .debug_loc     0x000000a0       0x2c e:/pic/bin/bin/../../lib/gcc/pic32mx/4.8.3/../../../../pic32mx/lib\libpic32.a(default-general-exception-handler.o)
 .debug_loc     0x000000cc       0x20 e:/pic/bin/bin/../../lib/gcc/pic32mx/4.8.3/../../../../pic32mx/lib\libm.a(w_asinf.o)
 .debug_loc     0x000000ec       0x20 e:/pic/bin/bin/../../lib/gcc/pic32mx/4.8.3/../../../../pic32mx/lib\libm.a(w_sqrtf.o)
 .debug_loc     0x0000010c       0x20 e:/pic/bin/bin/../../lib/gcc/pic32mx/4.8.3/../../../../pic32mx/lib\libm.a(__strtod.o)
 .debug_loc     0x0000012c       0x20 e:/pic/bin/bin/../../lib/gcc/pic32mx/4.8.3/../../../../pic32mx/lib\libe.a(_ldexp.o)
 .debug_loc     0x0000014c       0xbb e:/pic/bin/bin/../../lib/gcc/pic32mx/4.8.3\libgcc.a(_lshrdi3.o)
 .debug_loc     0x00000207       0x82 e:/pic/bin/bin/../../lib/gcc/pic32mx/4.8.3\libgcc.a(_ashldi3.o)
 .debug_loc     0x00000289      0xa6a e:/pic/bin/bin/../../lib/gcc/pic32mx/4.8.3\libgcc.a(_udivdi3.o)
 .debug_loc     0x00000cf3      0xa3d e:/pic/bin/bin/../../lib/gcc/pic32mx/4.8.3\libgcc.a(_umoddi3.o)
 .debug_loc     0x00001730       0x20 e:/pic/bin/bin/../../lib/gcc/pic32mx/4.8.3/../../../../pic32mx/lib\libpic32.a(_mon_getc.o)
 .debug_loc     0x00001750       0x20 e:/pic/bin/bin/../../lib/gcc/pic32mx/4.8.3/../../../../pic32mx/lib\libpic32.a(_mon_write.o)
 .debug_loc     0x00001770       0x20 e:/pic/bin/bin/../../lib/gcc/pic32mx/4.8.3/../../../../pic32mx/lib\libpic32.a(_mon_putc.o)

.debug_macinfo
 *(.debug_macinfo)

.debug_weaknames
 *(.debug_weaknames)

.debug_funcnames
 *(.debug_funcnames)

.debug_typenames
 *(.debug_typenames)

.debug_varnames
 *(.debug_varnames)

.debug_pubtypes
 *(.debug_pubtypes)

.debug_ranges   0x00000000      0x230
 *(.debug_ranges)
 .debug_ranges  0x00000000       0x10 e:/pic/bin/bin/../../lib/gcc/pic32mx/4.8.3/../../../../pic32mx/lib\libpic32.a(default-bootstrap-exception-handler.o)
 .debug_ranges  0x00000010       0x10 e:/pic/bin/bin/../../lib/gcc/pic32mx/4.8.3/../../../../pic32mx/lib\libpic32.a(default-on-reset.o)
 .debug_ranges  0x00000020       0x10 e:/pic/bin/bin/../../lib/gcc/pic32mx/4.8.3/../../../../pic32mx/lib\libpic32.a(default-on-bootstrap.o)
 .debug_ranges  0x00000030       0x10 e:/pic/bin/bin/../../lib/gcc/pic32mx/4.8.3/../../../../pic32mx/lib\libpic32.a(default-general-exception-handler.o)
 .debug_ranges  0x00000040       0x10 e:/pic/bin/bin/../../lib/gcc/pic32mx/4.8.3/../../../../pic32mx/lib\libpic32.a(defaultinterrupt.o)
 .debug_ranges  0x00000050       0x10 e:/pic/bin/bin/../../lib/gcc/pic32mx/4.8.3/../../../../pic32mx/lib\libm.a(w_asinf.o)
 .debug_ranges  0x00000060       0x10 e:/pic/bin/bin/../../lib/gcc/pic32mx/4.8.3/../../../../pic32mx/lib\libm.a(w_sqrtf.o)
 .debug_ranges  0x00000070       0x10 e:/pic/bin/bin/../../lib/gcc/pic32mx/4.8.3/../../../../pic32mx/lib\libm.a(__strtod.o)
 .debug_ranges  0x00000080       0x10 e:/pic/bin/bin/../../lib/gcc/pic32mx/4.8.3/../../../../pic32mx/lib\libe.a(_ldexp.o)
 .debug_ranges  0x00000090       0x98 e:/pic/bin/bin/../../lib/gcc/pic32mx/4.8.3\libgcc.a(_udivdi3.o)
 .debug_ranges  0x00000128       0xd8 e:/pic/bin/bin/../../lib/gcc/pic32mx/4.8.3\libgcc.a(_umoddi3.o)
 .debug_ranges  0x00000200       0x10 e:/pic/bin/bin/../../lib/gcc/pic32mx/4.8.3/../../../../pic32mx/lib\libpic32.a(_mon_getc.o)
 .debug_ranges  0x00000210       0x10 e:/pic/bin/bin/../../lib/gcc/pic32mx/4.8.3/../../../../pic32mx/lib\libpic32.a(_mon_write.o)
 .debug_ranges  0x00000220       0x10 e:/pic/bin/bin/../../lib/gcc/pic32mx/4.8.3/../../../../pic32mx/lib\libpic32.a(_mon_putc.o)

.gnu.attributes
                0x00000000       0x10
 *(.gnu.attributes)
 .gnu.attributes
                0x00000000       0x10 build/default/production/CONFIG.o
 .gnu.attributes
                0x00000010       0x10 build/default/production/Interrupts.o
 .gnu.attributes
                0x00000020       0x10 build/default/production/main.o
 .gnu.attributes
                0x00000030       0x10 build/default/production/I2C.o
 .gnu.attributes
                0x00000040       0x10 build/default/production/SPI.o
 .gnu.attributes
                0x00000050       0x10 build/default/production/ILI9341.o
 .gnu.attributes
                0x00000060       0x10 build/default/production/EUSART.o
 .gnu.attributes
                0x00000070       0x10 build/default/production/Delay.o
 .gnu.attributes
                0x00000080       0x10 build/default/production/BNO055.o
 .gnu.attributes
                0x00000090       0x10 build/default/production/MT3339.o
 .gnu.attributes
                0x000000a0       0x10 build/default/production/MAX17043.o
 .gnu.attributes
                0x000000b0       0x10 build/default/production/BQ27441.o
 .gnu.attributes
                0x000000c0       0x10 build/default/production/I2C_new.o
 .gnu.attributes
                0x000000d0       0x10 e:/pic/bin/bin/../../lib/gcc/pic32mx/4.8.3\libgcc.a(floatunsisf.o)
 .gnu.attributes
                0x000000e0       0x10 e:/pic/bin/bin/../../lib/gcc/pic32mx/4.8.3/../../../../pic32mx/lib\libpic32.a(default-bootstrap-exception-handler.o)
 .gnu.attributes
                0x000000f0       0x10 e:/pic/bin/bin/../../lib/gcc/pic32mx/4.8.3/../../../../pic32mx/lib\libpic32.a(default-on-reset.o)
 .gnu.attributes
                0x00000100       0x10 e:/pic/bin/bin/../../lib/gcc/pic32mx/4.8.3/../../../../pic32mx/lib\libpic32.a(default-on-bootstrap.o)
 .gnu.attributes
                0x00000110       0x10 e:/pic/bin/bin/../../lib/gcc/pic32mx/4.8.3/../../../../pic32mx/lib\libpic32.a(default-general-exception-handler.o)
 .gnu.attributes
                0x00000120       0x10 e:/pic/bin/bin/../../lib/gcc/pic32mx/4.8.3/../../../../pic32mx/lib\libpic32.a(defaultinterrupt.o)
 .gnu.attributes
                0x00000130       0x10 e:/pic/bin/bin/../../lib/gcc/pic32mx/4.8.3/../../../../pic32mx/lib\liblega-c.a(strncpy.o)
 .gnu.attributes
                0x00000140       0x10 e:/pic/bin/bin/../../lib/gcc/pic32mx/4.8.3/../../../../pic32mx/lib\liblega-c.a(strchr.o)
 .gnu.attributes
                0x00000150       0x10 e:/pic/bin/bin/../../lib/gcc/pic32mx/4.8.3/../../../../pic32mx/lib\liblega-c.a(strstr.o)
 .gnu.attributes
                0x00000160       0x10 e:/pic/bin/bin/../../lib/gcc/pic32mx/4.8.3/../../../../pic32mx/lib\liblega-c.a(atol.o)
 .gnu.attributes
                0x00000170       0x10 e:/pic/bin/bin/../../lib/gcc/pic32mx/4.8.3/../../../../pic32mx/lib\liblega-c.a(atoi.o)
 .gnu.attributes
                0x00000180       0x10 e:/pic/bin/bin/../../lib/gcc/pic32mx/4.8.3/../../../../pic32mx/lib\liblega-c.a(strtol.o)
 .gnu.attributes
                0x00000190       0x10 e:/pic/bin/bin/../../lib/gcc/pic32mx/4.8.3/../../../../pic32mx/lib\liblega-c.a(sprintf_cdfFnopuxX.eo)
 .gnu.attributes
                0x000001a0       0x10 e:/pic/bin/bin/../../lib/gcc/pic32mx/4.8.3/../../../../pic32mx/lib\liblega-c.a(ctype.o)
 .gnu.attributes
                0x000001b0       0x10 e:/pic/bin/bin/../../lib/gcc/pic32mx/4.8.3/../../../../pic32mx/lib\liblega-c.a(errno.o)
 .gnu.attributes
                0x000001c0       0x10 e:/pic/bin/bin/../../lib/gcc/pic32mx/4.8.3/../../../../pic32mx/lib\liblega-c.a(_doprnt_cdfFnopuxX.eo)
 .gnu.attributes
                0x000001d0       0x10 e:/pic/bin/bin/../../lib/gcc/pic32mx/4.8.3/../../../../pic32mx/lib\liblega-c.a(_iobdata.o)
 .gnu.attributes
                0x000001e0       0x10 e:/pic/bin/bin/../../lib/gcc/pic32mx/4.8.3/../../../../pic32mx/lib\liblega-c.a(_iobfuncs.o)
 .gnu.attributes
                0x000001f0       0x10 e:/pic/bin/bin/../../lib/gcc/pic32mx/4.8.3/../../../../pic32mx/lib\liblega-c.a(_iobstring.o)
 .gnu.attributes
                0x00000200       0x10 e:/pic/bin/bin/../../lib/gcc/pic32mx/4.8.3/../../../../pic32mx/lib\liblega-c.a(fputc.o)
 .gnu.attributes
                0x00000210       0x10 e:/pic/bin/bin/../../lib/gcc/pic32mx/4.8.3/../../../../pic32mx/lib\libm.a(w_asinf.o)
 .gnu.attributes
                0x00000220       0x10 e:/pic/bin/bin/../../lib/gcc/pic32mx/4.8.3/../../../../pic32mx/lib\libm.a(w_sqrtf.o)
 .gnu.attributes
                0x00000230       0x10 e:/pic/bin/bin/../../lib/gcc/pic32mx/4.8.3/../../../../pic32mx/lib\libm.a(__strtod.o)
 .gnu.attributes
                0x00000240       0x10 e:/pic/bin/bin/../../lib/gcc/pic32mx/4.8.3/../../../../pic32mx/lib\libm.a(s_lib_ver.o)
 .gnu.attributes
                0x00000250       0x10 e:/pic/bin/bin/../../lib/gcc/pic32mx/4.8.3/../../../../pic32mx/lib\libe.a(_ldexp.o)
 .gnu.attributes
                0x00000260       0x10 e:/pic/bin/bin/../../lib/gcc/pic32mx/4.8.3\libgcc.a(_lshrdi3.o)
 .gnu.attributes
                0x00000270       0x10 e:/pic/bin/bin/../../lib/gcc/pic32mx/4.8.3\libgcc.a(_ashldi3.o)
 .gnu.attributes
                0x00000280       0x10 e:/pic/bin/bin/../../lib/gcc/pic32mx/4.8.3\libgcc.a(_udivdi3.o)
 .gnu.attributes
                0x00000290       0x10 e:/pic/bin/bin/../../lib/gcc/pic32mx/4.8.3\libgcc.a(_umoddi3.o)
 .gnu.attributes
                0x000002a0       0x10 e:/pic/bin/bin/../../lib/gcc/pic32mx/4.8.3/../../../../pic32mx/lib\libpic32.a(_mon_getc.o)
 .gnu.attributes
                0x000002b0       0x10 e:/pic/bin/bin/../../lib/gcc/pic32mx/4.8.3/../../../../pic32mx/lib\libpic32.a(_mon_write.o)
 .gnu.attributes
                0x000002c0       0x10 e:/pic/bin/bin/../../lib/gcc/pic32mx/4.8.3/../../../../pic32mx/lib\libpic32.a(xc32_uart.o)
 .gnu.attributes
                0x000002d0       0x10 e:/pic/bin/bin/../../lib/gcc/pic32mx/4.8.3/../../../../pic32mx/lib\libpic32.a(_mon_putc.o)
LOAD e:/pic/bin/bin/../../lib/gcc/pic32mx/4.8.3\libgcc.a
START GROUP
LOAD e:/pic/bin/bin/../../lib/gcc/pic32mx/4.8.3/../../../../pic32mx/lib\libpic32.a
LOAD e:/pic/bin/bin/../../lib/gcc/pic32mx/4.8.3/../../../../pic32mx/lib\libdebug.a
LOAD e:/pic/bin/bin/../../lib/gcc/pic32mx/4.8.3/../../../../pic32mx/lib\libpic32.a
LOAD e:/pic/bin/bin/../../lib/gcc/pic32mx/4.8.3/../../../../pic32mx/lib\liblega-c.a
LOAD e:/pic/bin/bin/../../lib/gcc/pic32mx/4.8.3/../../../../pic32mx/lib\libm.a
LOAD e:/pic/bin/bin/../../lib/gcc/pic32mx/4.8.3/../../../../pic32mx/lib\libe.a
LOAD e:/pic/bin/bin/../../lib/gcc/pic32mx/4.8.3/../../../../pic32mx/lib\libdsp.a
LOAD e:/pic/bin/bin/../../lib/gcc/pic32mx/4.8.3\libgcc.a
LOAD e:/pic/bin/bin/../../lib/gcc/pic32mx/4.8.3/../../../../pic32mx/lib\libpic32.a
END GROUP
LOAD e:/pic/bin/bin/../../lib/gcc/pic32mx/4.8.3\libgcc.a
OUTPUT(dist/default/production/PIC32MX.X.production.elf elf32-tradlittlemips)
LOAD stack
LOAD data_init

.reginfo        0x00000000       0x18
 .reginfo       0x00000000       0x18 e:/pic/bin/bin/../../lib/gcc/pic32mx/4.8.3/../../../../pic32mx/lib/./proc/32MX170F256B/crt0_mips32r2.o

.stack          0xa0000a68      0x400
 .stack         0xa0000a68      0x400 stack

.data           0xa0000398      0x1d4
 .data          0xa0000398      0x100 e:/pic/bin/bin/../../lib/gcc/pic32mx/4.8.3/../../../../pic32mx/lib\libm.a(fpexatan.o)
 .data          0xa0000498       0xd4 e:/pic/bin/bin/../../lib/gcc/pic32mx/4.8.3/../../../../pic32mx/lib\liblega-c.a(_iobdata.o)

.bss            0xa000056c       0x88
 .bss           0xa000056c       0x88 e:/pic/bin/bin/../../lib/gcc/pic32mx/4.8.3/../../../../pic32mx/lib\liblega-c.a(_iobdata.o)

.data           0xa00005f4       0x50
 .data          0xa00005f4       0x2c build/default/production/main.o
                0xa00005f4                str_buffer_msg
                0xa0000608                uart_strt_msg
 .data          0xa0000620       0x24 e:/pic/bin/bin/../../lib/gcc/pic32mx/4.8.3/../../../../pic32mx/lib\libm.a(sincof32.o)
                0xa0000620                _sincof
                0xa0000630                _coscof

.data.math_errhandling_flag
                0xa0000644        0x4
 .data.math_errhandling_flag
                0xa0000644        0x4 e:/pic/bin/bin/../../lib/gcc/pic32mx/4.8.3/../../../../pic32mx/lib\libm.a(s_lib_ver.o)
                0xa0000644                math_errhandling

.bss%z1         0x00000000        0x0
 .bss           0x00000000        0x0 e:/pic/bin/bin/../../lib/gcc/pic32mx/4.8.3/../../../../pic32mx/lib\libpic32.a(_mon_putc.o)

.data%z2        0x00000000        0x0
 .data          0x00000000        0x0 e:/pic/bin/bin/../../lib/gcc/pic32mx/4.8.3/../../../../pic32mx/lib\libpic32.a(_mon_putc.o)

.bss%z3         0x00000000        0x0
 .bss           0x00000000        0x0 e:/pic/bin/bin/../../lib/gcc/pic32mx/4.8.3/../../../../pic32mx/lib\libpic32.a(xc32_uart.o)

.data%z4        0x00000000        0x0
 .data          0x00000000        0x0 e:/pic/bin/bin/../../lib/gcc/pic32mx/4.8.3/../../../../pic32mx/lib\libpic32.a(xc32_uart.o)

.bss%z5         0x00000000        0x0
 .bss           0x00000000        0x0 e:/pic/bin/bin/../../lib/gcc/pic32mx/4.8.3/../../../../pic32mx/lib\libpic32.a(_mon_write.o)

.data%z6        0x00000000        0x0
 .data          0x00000000        0x0 e:/pic/bin/bin/../../lib/gcc/pic32mx/4.8.3/../../../../pic32mx/lib\libpic32.a(_mon_write.o)

.bss%z7         0x00000000        0x0
 .bss           0x00000000        0x0 e:/pic/bin/bin/../../lib/gcc/pic32mx/4.8.3/../../../../pic32mx/lib\libpic32.a(_mon_getc.o)

.data%z8        0x00000000        0x0
 .data          0x00000000        0x0 e:/pic/bin/bin/../../lib/gcc/pic32mx/4.8.3/../../../../pic32mx/lib\libpic32.a(_mon_getc.o)

.bss%z9         0x00000000        0x0
 .bss           0x00000000        0x0 e:/pic/bin/bin/../../lib/gcc/pic32mx/4.8.3\libgcc.a(_umoddi3.o)

.data%z10       0x00000000        0x0
 .data          0x00000000        0x0 e:/pic/bin/bin/../../lib/gcc/pic32mx/4.8.3\libgcc.a(_umoddi3.o)

.bss%z11        0x00000000        0x0
 .bss           0x00000000        0x0 e:/pic/bin/bin/../../lib/gcc/pic32mx/4.8.3\libgcc.a(_udivdi3.o)

.data%z12       0x00000000        0x0
 .data          0x00000000        0x0 e:/pic/bin/bin/../../lib/gcc/pic32mx/4.8.3\libgcc.a(_udivdi3.o)

.bss%z13        0x00000000        0x0
 .bss           0x00000000        0x0 e:/pic/bin/bin/../../lib/gcc/pic32mx/4.8.3\libgcc.a(_ashldi3.o)

.data%z14       0x00000000        0x0
 .data          0x00000000        0x0 e:/pic/bin/bin/../../lib/gcc/pic32mx/4.8.3\libgcc.a(_ashldi3.o)

.bss%z15        0x00000000        0x0
 .bss           0x00000000        0x0 e:/pic/bin/bin/../../lib/gcc/pic32mx/4.8.3\libgcc.a(_lshrdi3.o)

.data%z16       0x00000000        0x0
 .data          0x00000000        0x0 e:/pic/bin/bin/../../lib/gcc/pic32mx/4.8.3\libgcc.a(_lshrdi3.o)

.bss%z17        0x00000000        0x0
 .bss           0x00000000        0x0 e:/pic/bin/bin/../../lib/gcc/pic32mx/4.8.3/../../../../pic32mx/lib\libe.a(_ldexp.o)

.data%z18       0x00000000        0x0
 .data          0x00000000        0x0 e:/pic/bin/bin/../../lib/gcc/pic32mx/4.8.3/../../../../pic32mx/lib\libe.a(_ldexp.o)

.bss%z19        0x00000000        0x0
 .bss           0x00000000        0x0 e:/pic/bin/bin/../../lib/gcc/pic32mx/4.8.3/../../../../pic32mx/lib\libm.a(s_lib_ver.o)

.data%z20       0x00000000        0x0
 .data          0x00000000        0x0 e:/pic/bin/bin/../../lib/gcc/pic32mx/4.8.3/../../../../pic32mx/lib\libm.a(s_lib_ver.o)

.bss%z21        0x00000000        0x0
 .bss           0x00000000        0x0 e:/pic/bin/bin/../../lib/gcc/pic32mx/4.8.3/../../../../pic32mx/lib\libm.a(negdf2.o)

.data%z22       0x00000000        0x0
 .data          0x00000000        0x0 e:/pic/bin/bin/../../lib/gcc/pic32mx/4.8.3/../../../../pic32mx/lib\libm.a(negdf2.o)

.bss%z23        0x00000000        0x0
 .bss           0x00000000        0x0 e:/pic/bin/bin/../../lib/gcc/pic32mx/4.8.3/../../../../pic32mx/lib\libm.a(litodp.o)

.data%z24       0x00000000        0x0
 .data          0x00000000        0x0 e:/pic/bin/bin/../../lib/gcc/pic32mx/4.8.3/../../../../pic32mx/lib\libm.a(litodp.o)

.bss%z25        0x00000000        0x0
 .bss           0x00000000        0x0 e:/pic/bin/bin/../../lib/gcc/pic32mx/4.8.3/../../../../pic32mx/lib\libm.a(fpsqrt32.o)

.data%z26       0x00000000        0x0
 .data          0x00000000        0x0 e:/pic/bin/bin/../../lib/gcc/pic32mx/4.8.3/../../../../pic32mx/lib\libm.a(fpsqrt32.o)

.bss%z27        0x00000000        0x0
 .bss           0x00000000        0x0 e:/pic/bin/bin/../../lib/gcc/pic32mx/4.8.3/../../../../pic32mx/lib\libm.a(fpexsqrt32.o)

.data%z28       0x00000000        0x0
 .data          0x00000000        0x0 e:/pic/bin/bin/../../lib/gcc/pic32mx/4.8.3/../../../../pic32mx/lib\libm.a(fpexsqrt32.o)

.bss%z29        0x00000000        0x0
 .bss           0x00000000        0x0 e:/pic/bin/bin/../../lib/gcc/pic32mx/4.8.3/../../../../pic32mx/lib\libm.a(fpfabs.o)

.data%z30       0x00000000        0x0
 .data          0x00000000        0x0 e:/pic/bin/bin/../../lib/gcc/pic32mx/4.8.3/../../../../pic32mx/lib\libm.a(fpfabs.o)

.bss%z31        0x00000000        0x0
 .bss           0x00000000        0x0 e:/pic/bin/bin/../../lib/gcc/pic32mx/4.8.3/../../../../pic32mx/lib\libm.a(fpexatan.o)

.bss%z32        0x00000000        0x0
 .bss           0x00000000        0x0 e:/pic/bin/bin/../../lib/gcc/pic32mx/4.8.3/../../../../pic32mx/lib\libm.a(fpasin.o)

.data%z33       0x00000000        0x0
 .data          0x00000000        0x0 e:/pic/bin/bin/../../lib/gcc/pic32mx/4.8.3/../../../../pic32mx/lib\libm.a(fpasin.o)

.bss%z34        0x00000000        0x0
 .bss           0x00000000        0x0 e:/pic/bin/bin/../../lib/gcc/pic32mx/4.8.3/../../../../pic32mx/lib\libm.a(dp32subadd.o)

.data%z35       0x00000000        0x0
 .data          0x00000000        0x0 e:/pic/bin/bin/../../lib/gcc/pic32mx/4.8.3/../../../../pic32mx/lib\libm.a(dp32subadd.o)

.bss%z36        0x00000000        0x0
 .bss           0x00000000        0x0 e:/pic/bin/bin/../../lib/gcc/pic32mx/4.8.3/../../../../pic32mx/lib\libm.a(dp32mul.o)

.data%z37       0x00000000        0x0
 .data          0x00000000        0x0 e:/pic/bin/bin/../../lib/gcc/pic32mx/4.8.3/../../../../pic32mx/lib\libm.a(dp32mul.o)

.bss%z38        0x00000000        0x0
 .bss           0x00000000        0x0 e:/pic/bin/bin/../../lib/gcc/pic32mx/4.8.3/../../../../pic32mx/lib\libm.a(dp32div.o)

.data%z39       0x00000000        0x0
 .data          0x00000000        0x0 e:/pic/bin/bin/../../lib/gcc/pic32mx/4.8.3/../../../../pic32mx/lib\libm.a(dp32div.o)

.bss%z40        0x00000000        0x0
 .bss           0x00000000        0x0 e:/pic/bin/bin/../../lib/gcc/pic32mx/4.8.3/../../../../pic32mx/lib\libm.a(__strtod.o)

.data%z41       0x00000000        0x0
 .data          0x00000000        0x0 e:/pic/bin/bin/../../lib/gcc/pic32mx/4.8.3/../../../../pic32mx/lib\libm.a(__strtod.o)

.bss%z42        0x00000000        0x0
 .bss           0x00000000        0x0 e:/pic/bin/bin/../../lib/gcc/pic32mx/4.8.3/../../../../pic32mx/lib\libm.a(w_sqrtf.o)

.data%z43       0x00000000        0x0
 .data          0x00000000        0x0 e:/pic/bin/bin/../../lib/gcc/pic32mx/4.8.3/../../../../pic32mx/lib\libm.a(w_sqrtf.o)

.bss%z44        0x00000000        0x0
 .bss           0x00000000        0x0 e:/pic/bin/bin/../../lib/gcc/pic32mx/4.8.3/../../../../pic32mx/lib\libm.a(w_asinf.o)

.data%z45       0x00000000        0x0
 .data          0x00000000        0x0 e:/pic/bin/bin/../../lib/gcc/pic32mx/4.8.3/../../../../pic32mx/lib\libm.a(w_asinf.o)

.bss%z46        0x00000000        0x0
 .bss           0x00000000        0x0 e:/pic/bin/bin/../../lib/gcc/pic32mx/4.8.3/../../../../pic32mx/lib\libm.a(sitofp.o)

.data%z47       0x00000000        0x0
 .data          0x00000000        0x0 e:/pic/bin/bin/../../lib/gcc/pic32mx/4.8.3/../../../../pic32mx/lib\libm.a(sitofp.o)

.bss%z48        0x00000000        0x0
 .bss           0x00000000        0x0 e:/pic/bin/bin/../../lib/gcc/pic32mx/4.8.3/../../../../pic32mx/lib\libm.a(sincof32.o)

.bss%z49        0x00000000        0x0
 .bss           0x00000000        0x0 e:/pic/bin/bin/../../lib/gcc/pic32mx/4.8.3/../../../../pic32mx/lib\libm.a(fptoul.o)

.data%z50       0x00000000        0x0
 .data          0x00000000        0x0 e:/pic/bin/bin/../../lib/gcc/pic32mx/4.8.3/../../../../pic32mx/lib\libm.a(fptoul.o)

.bss%z51        0x00000000        0x0
 .bss           0x00000000        0x0 e:/pic/bin/bin/../../lib/gcc/pic32mx/4.8.3/../../../../pic32mx/lib\libm.a(fptoli.o)

.data%z52       0x00000000        0x0
 .data          0x00000000        0x0 e:/pic/bin/bin/../../lib/gcc/pic32mx/4.8.3/../../../../pic32mx/lib\libm.a(fptoli.o)

.bss%z53        0x00000000        0x0
 .bss           0x00000000        0x0 e:/pic/bin/bin/../../lib/gcc/pic32mx/4.8.3/../../../../pic32mx/lib\libm.a(fpsin32.o)

.data%z54       0x00000000        0x0
 .data          0x00000000        0x0 e:/pic/bin/bin/../../lib/gcc/pic32mx/4.8.3/../../../../pic32mx/lib\libm.a(fpsin32.o)

.bss%z55        0x00000000        0x0
 .bss           0x00000000        0x0 e:/pic/bin/bin/../../lib/gcc/pic32mx/4.8.3/../../../../pic32mx/lib\libm.a(fpreduct32.o)

.data%z56       0x00000000        0x0
 .data          0x00000000        0x0 e:/pic/bin/bin/../../lib/gcc/pic32mx/4.8.3/../../../../pic32mx/lib\libm.a(fpreduct32.o)

.bss%z57        0x00000000        0x0
 .bss           0x00000000        0x0 e:/pic/bin/bin/../../lib/gcc/pic32mx/4.8.3/../../../../pic32mx/lib\libm.a(fpmodf.o)

.data%z58       0x00000000        0x0
 .data          0x00000000        0x0 e:/pic/bin/bin/../../lib/gcc/pic32mx/4.8.3/../../../../pic32mx/lib\libm.a(fpmodf.o)

.bss%z59        0x00000000        0x0
 .bss           0x00000000        0x0 e:/pic/bin/bin/../../lib/gcc/pic32mx/4.8.3/../../../../pic32mx/lib\libm.a(fpfmod.o)

.data%z60       0x00000000        0x0
 .data          0x00000000        0x0 e:/pic/bin/bin/../../lib/gcc/pic32mx/4.8.3/../../../../pic32mx/lib\libm.a(fpfmod.o)

.bss%z61        0x00000000        0x0
 .bss           0x00000000        0x0 e:/pic/bin/bin/../../lib/gcc/pic32mx/4.8.3/../../../../pic32mx/lib\libm.a(fpcos32.o)

.data%z62       0x00000000        0x0
 .data          0x00000000        0x0 e:/pic/bin/bin/../../lib/gcc/pic32mx/4.8.3/../../../../pic32mx/lib\libm.a(fpcos32.o)

.bss%z63        0x00000000        0x0
 .bss           0x00000000        0x0 e:/pic/bin/bin/../../lib/gcc/pic32mx/4.8.3/../../../../pic32mx/lib\libm.a(fpcmp.o)

.data%z64       0x00000000        0x0
 .data          0x00000000        0x0 e:/pic/bin/bin/../../lib/gcc/pic32mx/4.8.3/../../../../pic32mx/lib\libm.a(fpcmp.o)

.bss%z65        0x00000000        0x0
 .bss           0x00000000        0x0 e:/pic/bin/bin/../../lib/gcc/pic32mx/4.8.3/../../../../pic32mx/lib\libm.a(fp32subadd.o)

.data%z66       0x00000000        0x0
 .data          0x00000000        0x0 e:/pic/bin/bin/../../lib/gcc/pic32mx/4.8.3/../../../../pic32mx/lib\libm.a(fp32subadd.o)

.bss%z67        0x00000000        0x0
 .bss           0x00000000        0x0 e:/pic/bin/bin/../../lib/gcc/pic32mx/4.8.3/../../../../pic32mx/lib\libm.a(fp32mul.o)

.data%z68       0x00000000        0x0
 .data          0x00000000        0x0 e:/pic/bin/bin/../../lib/gcc/pic32mx/4.8.3/../../../../pic32mx/lib\libm.a(fp32mul.o)

.bss%z69        0x00000000        0x0
 .bss           0x00000000        0x0 e:/pic/bin/bin/../../lib/gcc/pic32mx/4.8.3/../../../../pic32mx/lib\libm.a(fp32div.o)

.data%z70       0x00000000        0x0
 .data          0x00000000        0x0 e:/pic/bin/bin/../../lib/gcc/pic32mx/4.8.3/../../../../pic32mx/lib\libm.a(fp32div.o)

.bss%z71        0x00000000        0x0
 .bss           0x00000000        0x0 e:/pic/bin/bin/../../lib/gcc/pic32mx/4.8.3/../../../../pic32mx/lib\libm.a(dptofp.o)

.data%z72       0x00000000        0x0
 .data          0x00000000        0x0 e:/pic/bin/bin/../../lib/gcc/pic32mx/4.8.3/../../../../pic32mx/lib\libm.a(dptofp.o)

.bss%z73        0x00000000        0x0
 .bss           0x00000000        0x0 e:/pic/bin/bin/../../lib/gcc/pic32mx/4.8.3/../../../../pic32mx/lib\liblega-c.a(fputc.o)

.data%z74       0x00000000        0x0
 .data          0x00000000        0x0 e:/pic/bin/bin/../../lib/gcc/pic32mx/4.8.3/../../../../pic32mx/lib\liblega-c.a(fputc.o)

.bss%z75        0x00000000        0x0
 .bss           0x00000000        0x0 e:/pic/bin/bin/../../lib/gcc/pic32mx/4.8.3/../../../../pic32mx/lib\liblega-c.a(_iobstring.o)

.data%z76       0x00000000        0x0
 .data          0x00000000        0x0 e:/pic/bin/bin/../../lib/gcc/pic32mx/4.8.3/../../../../pic32mx/lib\liblega-c.a(_iobstring.o)

.bss%z77        0x00000000        0x0
 .bss           0x00000000        0x0 e:/pic/bin/bin/../../lib/gcc/pic32mx/4.8.3/../../../../pic32mx/lib\liblega-c.a(_iobfuncs.o)

.data%z78       0x00000000        0x0
 .data          0x00000000        0x0 e:/pic/bin/bin/../../lib/gcc/pic32mx/4.8.3/../../../../pic32mx/lib\liblega-c.a(_iobfuncs.o)

.bss%z79        0x00000000        0x0
 .bss           0x00000000        0x0 e:/pic/bin/bin/../../lib/gcc/pic32mx/4.8.3/../../../../pic32mx/lib\liblega-c.a(_doprnt_cdfFnopuxX.eo)

.data%z80       0x00000000        0x0
 .data          0x00000000        0x0 e:/pic/bin/bin/../../lib/gcc/pic32mx/4.8.3/../../../../pic32mx/lib\liblega-c.a(_doprnt_cdfFnopuxX.eo)

.bss%z81        0x00000000        0x0
 .bss           0x00000000        0x0 e:/pic/bin/bin/../../lib/gcc/pic32mx/4.8.3/../../../../pic32mx/lib\liblega-c.a(errno.o)

.data%z82       0x00000000        0x0
 .data          0x00000000        0x0 e:/pic/bin/bin/../../lib/gcc/pic32mx/4.8.3/../../../../pic32mx/lib\liblega-c.a(errno.o)

.bss%z83        0x00000000        0x0
 .bss           0x00000000        0x0 e:/pic/bin/bin/../../lib/gcc/pic32mx/4.8.3/../../../../pic32mx/lib\liblega-c.a(ctype.o)

.data%z84       0x00000000        0x0
 .data          0x00000000        0x0 e:/pic/bin/bin/../../lib/gcc/pic32mx/4.8.3/../../../../pic32mx/lib\liblega-c.a(ctype.o)

.bss%z85        0x00000000        0x0
 .bss           0x00000000        0x0 e:/pic/bin/bin/../../lib/gcc/pic32mx/4.8.3/../../../../pic32mx/lib\liblega-c.a(sprintf_cdfFnopuxX.eo)

.data%z86       0x00000000        0x0
 .data          0x00000000        0x0 e:/pic/bin/bin/../../lib/gcc/pic32mx/4.8.3/../../../../pic32mx/lib\liblega-c.a(sprintf_cdfFnopuxX.eo)

.bss%z87        0x00000000        0x0
 .bss           0x00000000        0x0 e:/pic/bin/bin/../../lib/gcc/pic32mx/4.8.3/../../../../pic32mx/lib\liblega-c.a(strtol.o)

.data%z88       0x00000000        0x0
 .data          0x00000000        0x0 e:/pic/bin/bin/../../lib/gcc/pic32mx/4.8.3/../../../../pic32mx/lib\liblega-c.a(strtol.o)

.bss%z89        0x00000000        0x0
 .bss           0x00000000        0x0 e:/pic/bin/bin/../../lib/gcc/pic32mx/4.8.3/../../../../pic32mx/lib\liblega-c.a(atoi.o)

.data%z90       0x00000000        0x0
 .data          0x00000000        0x0 e:/pic/bin/bin/../../lib/gcc/pic32mx/4.8.3/../../../../pic32mx/lib\liblega-c.a(atoi.o)

.bss%z91        0x00000000        0x0
 .bss           0x00000000        0x0 e:/pic/bin/bin/../../lib/gcc/pic32mx/4.8.3/../../../../pic32mx/lib\liblega-c.a(atol.o)

.data%z92       0x00000000        0x0
 .data          0x00000000        0x0 e:/pic/bin/bin/../../lib/gcc/pic32mx/4.8.3/../../../../pic32mx/lib\liblega-c.a(atol.o)

.bss%z93        0x00000000        0x0
 .bss           0x00000000        0x0 e:/pic/bin/bin/../../lib/gcc/pic32mx/4.8.3/../../../../pic32mx/lib\liblega-c.a(strstr.o)

.data%z94       0x00000000        0x0
 .data          0x00000000        0x0 e:/pic/bin/bin/../../lib/gcc/pic32mx/4.8.3/../../../../pic32mx/lib\liblega-c.a(strstr.o)

.bss%z95        0x00000000        0x0
 .bss           0x00000000        0x0 e:/pic/bin/bin/../../lib/gcc/pic32mx/4.8.3/../../../../pic32mx/lib\liblega-c.a(strchr.o)

.data%z96       0x00000000        0x0
 .data          0x00000000        0x0 e:/pic/bin/bin/../../lib/gcc/pic32mx/4.8.3/../../../../pic32mx/lib\liblega-c.a(strchr.o)

.bss%z97        0x00000000        0x0
 .bss           0x00000000        0x0 e:/pic/bin/bin/../../lib/gcc/pic32mx/4.8.3/../../../../pic32mx/lib\liblega-c.a(strncpy.o)

.data%z98       0x00000000        0x0
 .data          0x00000000        0x0 e:/pic/bin/bin/../../lib/gcc/pic32mx/4.8.3/../../../../pic32mx/lib\liblega-c.a(strncpy.o)

.bss%z99        0x00000000        0x0
 .bss           0x00000000        0x0 e:/pic/bin/bin/../../lib/gcc/pic32mx/4.8.3/../../../../pic32mx/lib\libpic32.a(defaultinterrupt.o)

.data%z100      0x00000000        0x0
 .data          0x00000000        0x0 e:/pic/bin/bin/../../lib/gcc/pic32mx/4.8.3/../../../../pic32mx/lib\libpic32.a(defaultinterrupt.o)

.bss%z101       0x00000000        0x0
 .bss           0x00000000        0x0 e:/pic/bin/bin/../../lib/gcc/pic32mx/4.8.3/../../../../pic32mx/lib\libpic32.a(default-general-exception-handler.o)

.data%z102      0x00000000        0x0
 .data          0x00000000        0x0 e:/pic/bin/bin/../../lib/gcc/pic32mx/4.8.3/../../../../pic32mx/lib\libpic32.a(default-general-exception-handler.o)

.bss%z103       0x00000000        0x0
 .bss           0x00000000        0x0 e:/pic/bin/bin/../../lib/gcc/pic32mx/4.8.3/../../../../pic32mx/lib\libpic32.a(vector43.o)

.data%z104      0x00000000        0x0
 .data          0x00000000        0x0 e:/pic/bin/bin/../../lib/gcc/pic32mx/4.8.3/../../../../pic32mx/lib\libpic32.a(vector43.o)

.bss%z105       0x00000000        0x0
 .bss           0x00000000        0x0 e:/pic/bin/bin/../../lib/gcc/pic32mx/4.8.3/../../../../pic32mx/lib\libpic32.a(vector42.o)

.data%z106      0x00000000        0x0
 .data          0x00000000        0x0 e:/pic/bin/bin/../../lib/gcc/pic32mx/4.8.3/../../../../pic32mx/lib\libpic32.a(vector42.o)

.bss%z107       0x00000000        0x0
 .bss           0x00000000        0x0 e:/pic/bin/bin/../../lib/gcc/pic32mx/4.8.3/../../../../pic32mx/lib\libpic32.a(vector41.o)

.data%z108      0x00000000        0x0
 .data          0x00000000        0x0 e:/pic/bin/bin/../../lib/gcc/pic32mx/4.8.3/../../../../pic32mx/lib\libpic32.a(vector41.o)

.bss%z109       0x00000000        0x0
 .bss           0x00000000        0x0 e:/pic/bin/bin/../../lib/gcc/pic32mx/4.8.3/../../../../pic32mx/lib\libpic32.a(vector40.o)

.data%z110      0x00000000        0x0
 .data          0x00000000        0x0 e:/pic/bin/bin/../../lib/gcc/pic32mx/4.8.3/../../../../pic32mx/lib\libpic32.a(vector40.o)

.bss%z111       0x00000000        0x0
 .bss           0x00000000        0x0 e:/pic/bin/bin/../../lib/gcc/pic32mx/4.8.3/../../../../pic32mx/lib\libpic32.a(vector39.o)

.data%z112      0x00000000        0x0
 .data          0x00000000        0x0 e:/pic/bin/bin/../../lib/gcc/pic32mx/4.8.3/../../../../pic32mx/lib\libpic32.a(vector39.o)

.bss%z113       0x00000000        0x0
 .bss           0x00000000        0x0 e:/pic/bin/bin/../../lib/gcc/pic32mx/4.8.3/../../../../pic32mx/lib\libpic32.a(vector38.o)

.data%z114      0x00000000        0x0
 .data          0x00000000        0x0 e:/pic/bin/bin/../../lib/gcc/pic32mx/4.8.3/../../../../pic32mx/lib\libpic32.a(vector38.o)

.bss%z115       0x00000000        0x0
 .bss           0x00000000        0x0 e:/pic/bin/bin/../../lib/gcc/pic32mx/4.8.3/../../../../pic32mx/lib\libpic32.a(vector36.o)

.data%z116      0x00000000        0x0
 .data          0x00000000        0x0 e:/pic/bin/bin/../../lib/gcc/pic32mx/4.8.3/../../../../pic32mx/lib\libpic32.a(vector36.o)

.bss%z117       0x00000000        0x0
 .bss           0x00000000        0x0 e:/pic/bin/bin/../../lib/gcc/pic32mx/4.8.3/../../../../pic32mx/lib\libpic32.a(vector35.o)

.data%z118      0x00000000        0x0
 .data          0x00000000        0x0 e:/pic/bin/bin/../../lib/gcc/pic32mx/4.8.3/../../../../pic32mx/lib\libpic32.a(vector35.o)

.bss%z119       0x00000000        0x0
 .bss           0x00000000        0x0 e:/pic/bin/bin/../../lib/gcc/pic32mx/4.8.3/../../../../pic32mx/lib\libpic32.a(vector34.o)

.data%z120      0x00000000        0x0
 .data          0x00000000        0x0 e:/pic/bin/bin/../../lib/gcc/pic32mx/4.8.3/../../../../pic32mx/lib\libpic32.a(vector34.o)

.bss%z121       0x00000000        0x0
 .bss           0x00000000        0x0 e:/pic/bin/bin/../../lib/gcc/pic32mx/4.8.3/../../../../pic32mx/lib\libpic32.a(vector33.o)

.data%z122      0x00000000        0x0
 .data          0x00000000        0x0 e:/pic/bin/bin/../../lib/gcc/pic32mx/4.8.3/../../../../pic32mx/lib\libpic32.a(vector33.o)

.bss%z123       0x00000000        0x0
 .bss           0x00000000        0x0 e:/pic/bin/bin/../../lib/gcc/pic32mx/4.8.3/../../../../pic32mx/lib\libpic32.a(vector31.o)

.data%z124      0x00000000        0x0
 .data          0x00000000        0x0 e:/pic/bin/bin/../../lib/gcc/pic32mx/4.8.3/../../../../pic32mx/lib\libpic32.a(vector31.o)

.bss%z125       0x00000000        0x0
 .bss           0x00000000        0x0 e:/pic/bin/bin/../../lib/gcc/pic32mx/4.8.3/../../../../pic32mx/lib\libpic32.a(vector30.o)

.data%z126      0x00000000        0x0
 .data          0x00000000        0x0 e:/pic/bin/bin/../../lib/gcc/pic32mx/4.8.3/../../../../pic32mx/lib\libpic32.a(vector30.o)

.bss%z127       0x00000000        0x0
 .bss           0x00000000        0x0 e:/pic/bin/bin/../../lib/gcc/pic32mx/4.8.3/../../../../pic32mx/lib\libpic32.a(vector29.o)

.data%z128      0x00000000        0x0
 .data          0x00000000        0x0 e:/pic/bin/bin/../../lib/gcc/pic32mx/4.8.3/../../../../pic32mx/lib\libpic32.a(vector29.o)

.bss%z129       0x00000000        0x0
 .bss           0x00000000        0x0 e:/pic/bin/bin/../../lib/gcc/pic32mx/4.8.3/../../../../pic32mx/lib\libpic32.a(vector28.o)

.data%z130      0x00000000        0x0
 .data          0x00000000        0x0 e:/pic/bin/bin/../../lib/gcc/pic32mx/4.8.3/../../../../pic32mx/lib\libpic32.a(vector28.o)

.bss%z131       0x00000000        0x0
 .bss           0x00000000        0x0 e:/pic/bin/bin/../../lib/gcc/pic32mx/4.8.3/../../../../pic32mx/lib\libpic32.a(vector27.o)

.data%z132      0x00000000        0x0
 .data          0x00000000        0x0 e:/pic/bin/bin/../../lib/gcc/pic32mx/4.8.3/../../../../pic32mx/lib\libpic32.a(vector27.o)

.bss%z133       0x00000000        0x0
 .bss           0x00000000        0x0 e:/pic/bin/bin/../../lib/gcc/pic32mx/4.8.3/../../../../pic32mx/lib\libpic32.a(vector26.o)

.data%z134      0x00000000        0x0
 .data          0x00000000        0x0 e:/pic/bin/bin/../../lib/gcc/pic32mx/4.8.3/../../../../pic32mx/lib\libpic32.a(vector26.o)

.bss%z135       0x00000000        0x0
 .bss           0x00000000        0x0 e:/pic/bin/bin/../../lib/gcc/pic32mx/4.8.3/../../../../pic32mx/lib\libpic32.a(vector25.o)

.data%z136      0x00000000        0x0
 .data          0x00000000        0x0 e:/pic/bin/bin/../../lib/gcc/pic32mx/4.8.3/../../../../pic32mx/lib\libpic32.a(vector25.o)

.bss%z137       0x00000000        0x0
 .bss           0x00000000        0x0 e:/pic/bin/bin/../../lib/gcc/pic32mx/4.8.3/../../../../pic32mx/lib\libpic32.a(vector24.o)

.data%z138      0x00000000        0x0
 .data          0x00000000        0x0 e:/pic/bin/bin/../../lib/gcc/pic32mx/4.8.3/../../../../pic32mx/lib\libpic32.a(vector24.o)

.bss%z139       0x00000000        0x0
 .bss           0x00000000        0x0 e:/pic/bin/bin/../../lib/gcc/pic32mx/4.8.3/../../../../pic32mx/lib\libpic32.a(vector23.o)

.data%z140      0x00000000        0x0
 .data          0x00000000        0x0 e:/pic/bin/bin/../../lib/gcc/pic32mx/4.8.3/../../../../pic32mx/lib\libpic32.a(vector23.o)

.bss%z141       0x00000000        0x0
 .bss           0x00000000        0x0 e:/pic/bin/bin/../../lib/gcc/pic32mx/4.8.3/../../../../pic32mx/lib\libpic32.a(vector22.o)

.data%z142      0x00000000        0x0
 .data          0x00000000        0x0 e:/pic/bin/bin/../../lib/gcc/pic32mx/4.8.3/../../../../pic32mx/lib\libpic32.a(vector22.o)

.bss%z143       0x00000000        0x0
 .bss           0x00000000        0x0 e:/pic/bin/bin/../../lib/gcc/pic32mx/4.8.3/../../../../pic32mx/lib\libpic32.a(vector21.o)

.data%z144      0x00000000        0x0
 .data          0x00000000        0x0 e:/pic/bin/bin/../../lib/gcc/pic32mx/4.8.3/../../../../pic32mx/lib\libpic32.a(vector21.o)

.bss%z145       0x00000000        0x0
 .bss           0x00000000        0x0 e:/pic/bin/bin/../../lib/gcc/pic32mx/4.8.3/../../../../pic32mx/lib\libpic32.a(vector20.o)

.data%z146      0x00000000        0x0
 .data          0x00000000        0x0 e:/pic/bin/bin/../../lib/gcc/pic32mx/4.8.3/../../../../pic32mx/lib\libpic32.a(vector20.o)

.bss%z147       0x00000000        0x0
 .bss           0x00000000        0x0 e:/pic/bin/bin/../../lib/gcc/pic32mx/4.8.3/../../../../pic32mx/lib\libpic32.a(vector19.o)

.data%z148      0x00000000        0x0
 .data          0x00000000        0x0 e:/pic/bin/bin/../../lib/gcc/pic32mx/4.8.3/../../../../pic32mx/lib\libpic32.a(vector19.o)

.bss%z149       0x00000000        0x0
 .bss           0x00000000        0x0 e:/pic/bin/bin/../../lib/gcc/pic32mx/4.8.3/../../../../pic32mx/lib\libpic32.a(vector18.o)

.data%z150      0x00000000        0x0
 .data          0x00000000        0x0 e:/pic/bin/bin/../../lib/gcc/pic32mx/4.8.3/../../../../pic32mx/lib\libpic32.a(vector18.o)

.bss%z151       0x00000000        0x0
 .bss           0x00000000        0x0 e:/pic/bin/bin/../../lib/gcc/pic32mx/4.8.3/../../../../pic32mx/lib\libpic32.a(vector17.o)

.data%z152      0x00000000        0x0
 .data          0x00000000        0x0 e:/pic/bin/bin/../../lib/gcc/pic32mx/4.8.3/../../../../pic32mx/lib\libpic32.a(vector17.o)

.bss%z153       0x00000000        0x0
 .bss           0x00000000        0x0 e:/pic/bin/bin/../../lib/gcc/pic32mx/4.8.3/../../../../pic32mx/lib\libpic32.a(vector16.o)

.data%z154      0x00000000        0x0
 .data          0x00000000        0x0 e:/pic/bin/bin/../../lib/gcc/pic32mx/4.8.3/../../../../pic32mx/lib\libpic32.a(vector16.o)

.bss%z155       0x00000000        0x0
 .bss           0x00000000        0x0 e:/pic/bin/bin/../../lib/gcc/pic32mx/4.8.3/../../../../pic32mx/lib\libpic32.a(vector15.o)

.data%z156      0x00000000        0x0
 .data          0x00000000        0x0 e:/pic/bin/bin/../../lib/gcc/pic32mx/4.8.3/../../../../pic32mx/lib\libpic32.a(vector15.o)

.bss%z157       0x00000000        0x0
 .bss           0x00000000        0x0 e:/pic/bin/bin/../../lib/gcc/pic32mx/4.8.3/../../../../pic32mx/lib\libpic32.a(vector14.o)

.data%z158      0x00000000        0x0
 .data          0x00000000        0x0 e:/pic/bin/bin/../../lib/gcc/pic32mx/4.8.3/../../../../pic32mx/lib\libpic32.a(vector14.o)

.bss%z159       0x00000000        0x0
 .bss           0x00000000        0x0 e:/pic/bin/bin/../../lib/gcc/pic32mx/4.8.3/../../../../pic32mx/lib\libpic32.a(vector13.o)

.data%z160      0x00000000        0x0
 .data          0x00000000        0x0 e:/pic/bin/bin/../../lib/gcc/pic32mx/4.8.3/../../../../pic32mx/lib\libpic32.a(vector13.o)

.bss%z161       0x00000000        0x0
 .bss           0x00000000        0x0 e:/pic/bin/bin/../../lib/gcc/pic32mx/4.8.3/../../../../pic32mx/lib\libpic32.a(vector12.o)

.data%z162      0x00000000        0x0
 .data          0x00000000        0x0 e:/pic/bin/bin/../../lib/gcc/pic32mx/4.8.3/../../../../pic32mx/lib\libpic32.a(vector12.o)

.bss%z163       0x00000000        0x0
 .bss           0x00000000        0x0 e:/pic/bin/bin/../../lib/gcc/pic32mx/4.8.3/../../../../pic32mx/lib\libpic32.a(vector11.o)

.data%z164      0x00000000        0x0
 .data          0x00000000        0x0 e:/pic/bin/bin/../../lib/gcc/pic32mx/4.8.3/../../../../pic32mx/lib\libpic32.a(vector11.o)

.bss%z165       0x00000000        0x0
 .bss           0x00000000        0x0 e:/pic/bin/bin/../../lib/gcc/pic32mx/4.8.3/../../../../pic32mx/lib\libpic32.a(vector10.o)

.data%z166      0x00000000        0x0
 .data          0x00000000        0x0 e:/pic/bin/bin/../../lib/gcc/pic32mx/4.8.3/../../../../pic32mx/lib\libpic32.a(vector10.o)

.bss%z167       0x00000000        0x0
 .bss           0x00000000        0x0 e:/pic/bin/bin/../../lib/gcc/pic32mx/4.8.3/../../../../pic32mx/lib\libpic32.a(vector9.o)

.data%z168      0x00000000        0x0
 .data          0x00000000        0x0 e:/pic/bin/bin/../../lib/gcc/pic32mx/4.8.3/../../../../pic32mx/lib\libpic32.a(vector9.o)

.bss%z169       0x00000000        0x0
 .bss           0x00000000        0x0 e:/pic/bin/bin/../../lib/gcc/pic32mx/4.8.3/../../../../pic32mx/lib\libpic32.a(vector8.o)

.data%z170      0x00000000        0x0
 .data          0x00000000        0x0 e:/pic/bin/bin/../../lib/gcc/pic32mx/4.8.3/../../../../pic32mx/lib\libpic32.a(vector8.o)

.bss%z171       0x00000000        0x0
 .bss           0x00000000        0x0 e:/pic/bin/bin/../../lib/gcc/pic32mx/4.8.3/../../../../pic32mx/lib\libpic32.a(vector7.o)

.data%z172      0x00000000        0x0
 .data          0x00000000        0x0 e:/pic/bin/bin/../../lib/gcc/pic32mx/4.8.3/../../../../pic32mx/lib\libpic32.a(vector7.o)

.bss%z173       0x00000000        0x0
 .bss           0x00000000        0x0 e:/pic/bin/bin/../../lib/gcc/pic32mx/4.8.3/../../../../pic32mx/lib\libpic32.a(vector6.o)

.data%z174      0x00000000        0x0
 .data          0x00000000        0x0 e:/pic/bin/bin/../../lib/gcc/pic32mx/4.8.3/../../../../pic32mx/lib\libpic32.a(vector6.o)

.bss%z175       0x00000000        0x0
 .bss           0x00000000        0x0 e:/pic/bin/bin/../../lib/gcc/pic32mx/4.8.3/../../../../pic32mx/lib\libpic32.a(vector5.o)

.data%z176      0x00000000        0x0
 .data          0x00000000        0x0 e:/pic/bin/bin/../../lib/gcc/pic32mx/4.8.3/../../../../pic32mx/lib\libpic32.a(vector5.o)

.bss%z177       0x00000000        0x0
 .bss           0x00000000        0x0 e:/pic/bin/bin/../../lib/gcc/pic32mx/4.8.3/../../../../pic32mx/lib\libpic32.a(vector4.o)

.data%z178      0x00000000        0x0
 .data          0x00000000        0x0 e:/pic/bin/bin/../../lib/gcc/pic32mx/4.8.3/../../../../pic32mx/lib\libpic32.a(vector4.o)

.bss%z179       0x00000000        0x0
 .bss           0x00000000        0x0 e:/pic/bin/bin/../../lib/gcc/pic32mx/4.8.3/../../../../pic32mx/lib\libpic32.a(vector3.o)

.data%z180      0x00000000        0x0
 .data          0x00000000        0x0 e:/pic/bin/bin/../../lib/gcc/pic32mx/4.8.3/../../../../pic32mx/lib\libpic32.a(vector3.o)

.bss%z181       0x00000000        0x0
 .bss           0x00000000        0x0 e:/pic/bin/bin/../../lib/gcc/pic32mx/4.8.3/../../../../pic32mx/lib\libpic32.a(vector2.o)

.data%z182      0x00000000        0x0
 .data          0x00000000        0x0 e:/pic/bin/bin/../../lib/gcc/pic32mx/4.8.3/../../../../pic32mx/lib\libpic32.a(vector2.o)

.bss%z183       0x00000000        0x0
 .bss           0x00000000        0x0 e:/pic/bin/bin/../../lib/gcc/pic32mx/4.8.3/../../../../pic32mx/lib\libpic32.a(vector1.o)

.data%z184      0x00000000        0x0
 .data          0x00000000        0x0 e:/pic/bin/bin/../../lib/gcc/pic32mx/4.8.3/../../../../pic32mx/lib\libpic32.a(vector1.o)

.bss%z185       0x00000000        0x0
 .bss           0x00000000        0x0 e:/pic/bin/bin/../../lib/gcc/pic32mx/4.8.3/../../../../pic32mx/lib\libpic32.a(vector0.o)

.data%z186      0x00000000        0x0
 .data          0x00000000        0x0 e:/pic/bin/bin/../../lib/gcc/pic32mx/4.8.3/../../../../pic32mx/lib\libpic32.a(vector0.o)

.bss%z187       0x00000000        0x0
 .bss           0x00000000        0x0 e:/pic/bin/bin/../../lib/gcc/pic32mx/4.8.3/../../../../pic32mx/lib\libpic32.a(general-exception.o)

.data%z188      0x00000000        0x0
 .data          0x00000000        0x0 e:/pic/bin/bin/../../lib/gcc/pic32mx/4.8.3/../../../../pic32mx/lib\libpic32.a(general-exception.o)

.bss%z189       0x00000000        0x0
 .bss           0x00000000        0x0 e:/pic/bin/bin/../../lib/gcc/pic32mx/4.8.3/../../../../pic32mx/lib\libpic32.a(pic32_data_init.o)

.data%z190      0x00000000        0x0
 .data          0x00000000        0x0 e:/pic/bin/bin/../../lib/gcc/pic32mx/4.8.3/../../../../pic32mx/lib\libpic32.a(pic32_data_init.o)

.bss%z191       0x00000000        0x0
 .bss           0x00000000        0x0 e:/pic/bin/bin/../../lib/gcc/pic32mx/4.8.3/../../../../pic32mx/lib\libpic32.a(default-nmi-handler.o)

.data%z192      0x00000000        0x0
 .data          0x00000000        0x0 e:/pic/bin/bin/../../lib/gcc/pic32mx/4.8.3/../../../../pic32mx/lib\libpic32.a(default-nmi-handler.o)

.bss%z193       0x00000000        0x0
 .bss           0x00000000        0x0 e:/pic/bin/bin/../../lib/gcc/pic32mx/4.8.3/../../../../pic32mx/lib\libpic32.a(default-on-bootstrap.o)

.data%z194      0x00000000        0x0
 .data          0x00000000        0x0 e:/pic/bin/bin/../../lib/gcc/pic32mx/4.8.3/../../../../pic32mx/lib\libpic32.a(default-on-bootstrap.o)

.bss%z195       0x00000000        0x0
 .bss           0x00000000        0x0 e:/pic/bin/bin/../../lib/gcc/pic32mx/4.8.3/../../../../pic32mx/lib\libpic32.a(default-on-reset.o)

.data%z196      0x00000000        0x0
 .data          0x00000000        0x0 e:/pic/bin/bin/../../lib/gcc/pic32mx/4.8.3/../../../../pic32mx/lib\libpic32.a(default-on-reset.o)

.bss%z197       0x00000000        0x0
 .bss           0x00000000        0x0 e:/pic/bin/bin/../../lib/gcc/pic32mx/4.8.3/../../../../pic32mx/lib\libpic32.a(default-bootstrap-exception-handler.o)

.data%z198      0x00000000        0x0
 .data          0x00000000        0x0 e:/pic/bin/bin/../../lib/gcc/pic32mx/4.8.3/../../../../pic32mx/lib\libpic32.a(default-bootstrap-exception-handler.o)

.bss%z199       0x00000000        0x0
 .bss           0x00000000        0x0 e:/pic/bin/bin/../../lib/gcc/pic32mx/4.8.3/../../../../pic32mx/lib\libpic32.a(strlen.o)

.data%z200      0x00000000        0x0
 .data          0x00000000        0x0 e:/pic/bin/bin/../../lib/gcc/pic32mx/4.8.3/../../../../pic32mx/lib\libpic32.a(strlen.o)

.bss%z201       0x00000000        0x0
 .bss           0x00000000        0x0 e:/pic/bin/bin/../../lib/gcc/pic32mx/4.8.3/../../../../pic32mx/lib\libpic32.a(memset.o)

.data%z202      0x00000000        0x0
 .data          0x00000000        0x0 e:/pic/bin/bin/../../lib/gcc/pic32mx/4.8.3/../../../../pic32mx/lib\libpic32.a(memset.o)

.bss%z203       0x00000000        0x0
 .bss           0x00000000        0x0 e:/pic/bin/bin/../../lib/gcc/pic32mx/4.8.3/../../../../pic32mx/lib\libpic32.a(memcpy.o)

.data%z204      0x00000000        0x0
 .data          0x00000000        0x0 e:/pic/bin/bin/../../lib/gcc/pic32mx/4.8.3/../../../../pic32mx/lib\libpic32.a(memcpy.o)

.bss%z205       0x00000000        0x0
 .bss           0x00000000        0x0 e:/pic/bin/bin/../../lib/gcc/pic32mx/4.8.3\libgcc.a(floatunsisf.o)

.data%z206      0x00000000        0x0
 .data          0x00000000        0x0 e:/pic/bin/bin/../../lib/gcc/pic32mx/4.8.3\libgcc.a(floatunsisf.o)

.bss%z207       0x00000000        0x0
 .bss           0x00000000        0x0 e:/pic/bin/bin/../../lib/gcc/pic32mx/4.8.3/../../../../pic32mx/lib/./proc/32MX170F256B\processor.o

.data%z208      0x00000000        0x0
 .data          0x00000000        0x0 e:/pic/bin/bin/../../lib/gcc/pic32mx/4.8.3/../../../../pic32mx/lib/./proc/32MX170F256B\processor.o

.bss%z209       0x00000000        0x0
 .bss           0x00000000        0x0 e:/pic/bin/bin/../../lib/gcc/pic32mx/4.8.3/../../../../pic32mx/lib\pic32_software_reset.o

.data%z210      0x00000000        0x0
 .data          0x00000000        0x0 e:/pic/bin/bin/../../lib/gcc/pic32mx/4.8.3/../../../../pic32mx/lib\pic32_software_reset.o

.bss%z211       0x00000000        0x0
 .bss           0x00000000        0x0 e:/pic/bin/bin/../../lib/gcc/pic32mx/4.8.3/../../../../pic32mx/lib/./proc/32MX170F256B\default_isr_vectors.o

.data%z212      0x00000000        0x0
 .data          0x00000000        0x0 e:/pic/bin/bin/../../lib/gcc/pic32mx/4.8.3/../../../../pic32mx/lib/./proc/32MX170F256B\default_isr_vectors.o

.bss%z213       0x00000000        0x0
 .bss           0x00000000        0x0 build/default/production/I2C_new.o

.data%z214      0x00000000        0x0
 .data          0x00000000        0x0 build/default/production/I2C_new.o

.bss%z215       0x00000000        0x0
 .bss           0x00000000        0x0 build/default/production/BQ27441.o

.data%z216      0x00000000        0x0
 .data          0x00000000        0x0 build/default/production/BQ27441.o

.bss%z217       0x00000000        0x0
 .bss           0x00000000        0x0 build/default/production/MAX17043.o

.data%z218      0x00000000        0x0
 .data          0x00000000        0x0 build/default/production/MAX17043.o

.bss%z219       0x00000000        0x0
 .bss           0x00000000        0x0 build/default/production/MT3339.o

.data%z220      0x00000000        0x0
 .data          0x00000000        0x0 build/default/production/MT3339.o

.bss%z221       0x00000000        0x0
 .bss           0x00000000        0x0 build/default/production/BNO055.o

.data%z222      0x00000000        0x0
 .data          0x00000000        0x0 build/default/production/BNO055.o

.bss%z223       0x00000000        0x0
 .bss           0x00000000        0x0 build/default/production/Delay.o

.data%z224      0x00000000        0x0
 .data          0x00000000        0x0 build/default/production/Delay.o

.bss%z225       0x00000000        0x0
 .bss           0x00000000        0x0 build/default/production/EUSART.o

.data%z226      0x00000000        0x0
 .data          0x00000000        0x0 build/default/production/EUSART.o

.bss%z227       0x00000000        0x0
 .bss           0x00000000        0x0 build/default/production/ILI9341.o

.data%z228      0x00000000        0x0
 .data          0x00000000        0x0 build/default/production/ILI9341.o

.bss%z229       0x00000000        0x0
 .bss           0x00000000        0x0 build/default/production/SPI.o

.data%z230      0x00000000        0x0
 .data          0x00000000        0x0 build/default/production/SPI.o

.bss%z231       0x00000000        0x0
 .bss           0x00000000        0x0 build/default/production/I2C.o

.data%z232      0x00000000        0x0
 .data          0x00000000        0x0 build/default/production/I2C.o

.bss%z233       0x00000000        0x0
 .bss           0x00000000        0x0 build/default/production/main.o

.bss%z234       0x00000000        0x0
 .bss           0x00000000        0x0 build/default/production/Interrupts.o

.data%z235      0x00000000        0x0
 .data          0x00000000        0x0 build/default/production/Interrupts.o

.bss%z236       0x00000000        0x0
 .bss           0x00000000        0x0 build/default/production/CONFIG.o

.data%z237      0x00000000        0x0
 .data          0x00000000        0x0 build/default/production/CONFIG.o

.bss%z238       0x00000000        0x0
 .bss           0x00000000        0x0 e:/pic/bin/bin/../../lib/gcc/pic32mx/4.8.3/../../../../pic32mx/lib\debug-exception-return.o

.data%z239      0x00000000        0x0
 .data          0x00000000        0x0 e:/pic/bin/bin/../../lib/gcc/pic32mx/4.8.3/../../../../pic32mx/lib\debug-exception-return.o

.bss%z240       0x00000000        0x0
 .bss           0x00000000        0x0 e:/pic/bin/bin/../../lib/gcc/pic32mx/4.8.3/../../../../pic32mx/lib/./proc/32MX170F256B/crt0_mips32r2.o

.data%z241      0x00000000        0x0
 .data          0x00000000        0x0 e:/pic/bin/bin/../../lib/gcc/pic32mx/4.8.3/../../../../pic32mx/lib/./proc/32MX170F256B/crt0_mips32r2.o

._debug_exception
                0xbfc00480       0x2c
 ._debug_exception
                0xbfc00480       0x2c e:/pic/bin/bin/../../lib/gcc/pic32mx/4.8.3/../../../../pic32mx/lib\debug-exception-return.o
                0xbfc00480                __DbgExecReturn

.text           0x9d000000     0x5084
 .text          0x9d000000     0x2ec4 build/default/production/ILI9341.o
                0x9d000000                TFT_Init
                0x9d000484                TFT_Reset
                0x9d0004fc                TFT_WriteCommand
                0x9d000570                TFT_WriteParameter
                0x9d0005e8                TFT_ColumnPage
                0x9d000770                TFT_MemoryAccessControl
                0x9d00083c                TFT_RGBConvert
                0x9d0008b8                TFT_Pixel
                0x9d000a7c                TFT_SetDotSize
                0x9d000aac                TFT_Dot
                0x9d000c5c                TFT_SetFont
                0x9d000cac                TFT_CharHeight
                0x9d000ce8                TFT_TextWidth
                0x9d000d9c                TFT_WriteChar
                0x9d0014d8                TFT_ConstText
                0x9d00157c                TFT_Text
                0x9d001620                TFT_TextLEFT
                0x9d001700                TFT_TextCENTER
                0x9d001848                TFT_TextRIGHT
                0x9d00194c                TFT_FillScreen
                0x9d001a94                TFT_Box
                0x9d001bb0                TFT_Line
                0x9d001e08                TFT_Rectangle
                0x9d001ec0                TFT_RectangleRound
                0x9d0020b8                TFT_RectangleRoundFill
                0x9d002220                TFT_Circle
                0x9d002454                TFT_CircleFill
                0x9d0027bc                TFT_RoundEdge
                0x9d002a5c                TFT_Icon
                0x9d002ba0                TFT_Vector
 .text          0x9d002ec4     0x21c0 build/default/production/MT3339.o
                0x9d002ec4                GPS_Init
                0x9d002f10                GPS_String_Handler
                0x9d003000                GPS_Parse_NMEA
                0x9d0044bc                GPS_parseHex
                0x9d004568                parse_GGA
                0x9d0049ec                parse_RMC
                0x9d004dec                Xfer_String
                0x9d004e70                GPS_Haversine

.text           0x9d005084     0x13d0
 .text          0x9d005084     0x13d0 build/default/production/BNO055.o
                0x9d005084                Null_IMU_Values
                0x9d00511c                BNO_Init
                0x9d005408                BNO_Cal_Routine
                0x9d0059a4                BNO_Man_Update_ACC
                0x9d005a8c                BNO_Man_Update_GYR
                0x9d005b74                BNO_Man_Update_MAG
                0x9d005c5c                BNO_Man_Update_LIN
                0x9d005d50                BNO_Full_Man_Update
                0x9d005d90                Read_LIN
                0x9d005f30                Correct_Vectors
                0x9d00616c                Start_Delta_T
                0x9d0061a4                Read_Delta_T
                0x9d0061e0                Compute_Delta_T
                0x9d006240                Compute_Position
                0x9d0062d0                Get_Delta_T
                0x9d00630c                Get_Orientation

.rodata         0x9d006454     0x1350
 .rodata        0x9d006454     0x1350 build/default/production/main.o
                0x9d006454                Courier_New_Bold_20

.text           0x9d0077a4     0x1c70
 .text          0x9d0077a4      0xf30 build/default/production/BQ27441.o
                0x9d0077a4                BQ27441_setCapacity
                0x9d007818                BQ27441_voltage
                0x9d00784c                BQ27441_current
                0x9d0078f0                BQ27441_capacity
                0x9d007a44                BQ27441_power
                0x9d007a7c                BQ27441_soc
                0x9d007b04                BQ27441_soh
                0x9d007b7c                BQ27441_temperature
                0x9d007c04                BQ27441_deviceType
                0x9d007c38                BQ27441_enterConfig
                0x9d007ca8                BQ27441_exitConfig
                0x9d007d00                BQ27441_flags
                0x9d007d34                BQ27441_status
                0x9d007d68                BQ27441_sealed
                0x9d007da8                BQ27441_seal
                0x9d007ddc                BQ27441_unseal
                0x9d007e34                BQ27441_opConfig
                0x9d007e68                BQ27441BQ27441_writeOpConfig
                0x9d007edc                BQ27441_softReset
                0x9d007f10                BQ27441_readWord
                0x9d007f80                BQ27441_readControlWord
                0x9d008030                BQ27441_executeControlWord
                0x9d0080a8                BQ27441_blockDataControl
                0x9d0080f0                BQ27441_blockDataClass
                0x9d008138                BQ27441_blockDataOffset
                0x9d00817c                BQ27441_blockDataChecksum
                0x9d0081c0                BQ27441_readBlockData
                0x9d00821c                BQ27441_writeBlockData
                0x9d00827c                BQ27441_computeBlockChecksum
                0x9d008314                BQ27441_writeBlockChecksum
                0x9d008358                BQ27441_readExtendedData
                0x9d008450                BQ27441_writeExtendedData
                0x9d0085cc                BQ27441_i2cReadBytes
                0x9d008678                BQ27441_i2cWriteBytes
 .text          0x9d0086d4      0xd40 build/default/production/I2C.o
                0x9d0086d4                I2C_1_Init
                0x9d0087b0                I2C_2_Init
                0x9d008804                I2C_1_Read_Byte
                0x9d008a20                I2C_2_Read_Byte
                0x9d008ba4                I2C_1_Write_Byte
                0x9d008e4c                I2C_2_Write_Byte
                0x9d008f98                I2C_1_Repeated_Read
                0x9d009220                I2C_1_Repeated_Write
                0x9d0093b0                Xfer_Int
                0x9d0093ec                Read_Flag

.text._do_print_cdfFnopuxX
                0x9d009414      0xab4
 .text._do_print_cdfFnopuxX
                0x9d009414      0xab4 e:/pic/bin/bin/../../lib/gcc/pic32mx/4.8.3/../../../../pic32mx/lib\liblega-c.a(_doprnt_cdfFnopuxX.eo)
                0x9d009414                _do_print_cdfFnopuxX
                0x9d009414                _do_print_fF
                0x9d009414                _do_print_cdnopuxX

.text           0x9d009ec8      0x650
 .text          0x9d009ec8      0x650 build/default/production/I2C_new.o
                0x9d009fa4                I2C_1_Write_Bytes
                0x9d00a1f4                I2C_1_Repeated_Read_new

.text._fconvert
                0x9d00a518      0x5e0
 .text._fconvert
                0x9d00a518      0x5e0 e:/pic/bin/bin/../../lib/gcc/pic32mx/4.8.3/../../../../pic32mx/lib\liblega-c.a(_doprnt_cdfFnopuxX.eo)

.text           0x9d00aaf8      0x524
 .text          0x9d00aaf8      0x524 build/default/production/EUSART.o
                0x9d00aaf8                UART_1_Init
                0x9d00acb4                UART_2_Init
                0x9d00ae6c                Send_String_U1
                0x9d00aee0                Send_String_U2
                0x9d00af54                Send_String_U1_L

.text.dp32mul   0x9d00b01c      0x4b8
 .text.dp32mul  0x9d00b01c      0x4b8 e:/pic/bin/bin/../../lib/gcc/pic32mx/4.8.3/../../../../pic32mx/lib\libm.a(dp32div.o)
                0x9d00b01c                __divdf3
                0x9d00b01c                dpdiv

.text           0x9d00b4d4      0x8f4
 .text          0x9d00b4d4      0x490 build/default/production/main.o
                0x9d00b4d4                main
                0x9d00b878                Boot_Message
                0x9d00b8f8                Done_Message
 .text          0x9d00b964      0x464 e:/pic/bin/bin/../../lib/gcc/pic32mx/4.8.3\libgcc.a(_umoddi3.o)
                0x9d00b964                __umoddi3

.text           0x9d00bdc8      0x458
 .text          0x9d00bdc8      0x458 e:/pic/bin/bin/../../lib/gcc/pic32mx/4.8.3\libgcc.a(_udivdi3.o)
                0x9d00bdc8                __udivdi3

.text.dp32subadd
                0x9d00c220      0x430
 .text.dp32subadd
                0x9d00c220      0x430 e:/pic/bin/bin/../../lib/gcc/pic32mx/4.8.3/../../../../pic32mx/lib\libm.a(dp32subadd.o)
                0x9d00c220                __subdf3
                0x9d00c220                dpsub
                0x9d00c228                dpadd
                0x9d00c228                __adddf3

.text.__strtod  0x9d00c650      0x3d0
 .text.__strtod
                0x9d00c650      0x3d0 e:/pic/bin/bin/../../lib/gcc/pic32mx/4.8.3/../../../../pic32mx/lib\libm.a(__strtod.o)
                0x9d00c650                __strtod

.dinit          0x9d00ca20      0x3a0
 .dinit         0x9d00ca20      0x3a0 data_init

.text.libm      0x9d00cdc0      0x350
 .text.libm     0x9d00cdc0      0x350 e:/pic/bin/bin/../../lib/gcc/pic32mx/4.8.3/../../../../pic32mx/lib\libm.a(fpexatan.o)
                0x9d00cdc0                fpexatan

.text.dp32mul   0x9d00d110      0x32c
 .text.dp32mul  0x9d00d110      0x32c e:/pic/bin/bin/../../lib/gcc/pic32mx/4.8.3/../../../../pic32mx/lib\libm.a(dp32mul.o)
                0x9d00d110                __muldf3
                0x9d00d110                dpmul

.text           0x9d00d43c      0x5b4
 .text          0x9d00d43c      0x2e8 build/default/production/CONFIG.o
                0x9d00d43c                InitSystem
 .text          0x9d00d724      0x2cc build/default/production/SPI.o
                0x9d00d724                SPI1_Init
                0x9d00d900                SPI1_Close
                0x9d00d930                SPI1_Write
                0x9d00d9a4                SPI1_Read

.text.strtol    0x9d00d9f0      0x27c
 .text.strtol   0x9d00d9f0      0x27c e:/pic/bin/bin/../../lib/gcc/pic32mx/4.8.3/../../../../pic32mx/lib\liblega-c.a(strtol.o)
                0x9d00d9f0                strtol

.text.fpsubadd  0x9d00dc6c      0x278
 .text.fpsubadd
                0x9d00dc6c      0x278 e:/pic/bin/bin/../../lib/gcc/pic32mx/4.8.3/../../../../pic32mx/lib\libm.a(fp32subadd.o)
                0x9d00dc6c                fpsub
                0x9d00dc6c                __subsf3
                0x9d00dc74                __addsf3
                0x9d00dc74                fpadd

.text.fp32div   0x9d00dee4      0x230
 .text.fp32div  0x9d00dee4      0x230 e:/pic/bin/bin/../../lib/gcc/pic32mx/4.8.3/../../../../pic32mx/lib\libm.a(fp32div.o)
                0x9d00dee4                fpdiv
                0x9d00dee4                __divsf3

.text.libm      0x9d00e114      0x1dc
 .text.libm     0x9d00e114      0x1dc e:/pic/bin/bin/../../lib/gcc/pic32mx/4.8.3/../../../../pic32mx/lib\libm.a(fpasin.o)
                0x9d00e114                fpasin
                0x9d00e114                __mchp_asinf

.text           0x9d00e2f0      0x398
 .text          0x9d00e2f0      0x1d4 build/default/production/Delay.o
                0x9d00e2f0                Timer_1_Init
                0x9d00e344                Timer_1_Start
                0x9d00e378                Timer_1_Stop
                0x9d00e3a8                Timer_1_Reset
                0x9d00e3d4                Timer_1_Read
                0x9d00e3fc                Null_Timer_1
                0x9d00e424                Delay_ms
 .text          0x9d00e4c4      0x1c4 build/default/production/Interrupts.o
                0x9d00e4c4                UART_1_RX_ISR
                0x9d00e5f4                UART_2_RX_ISR

.text.fp32mul   0x9d00e688      0x1bc
 .text.fp32mul  0x9d00e688      0x1bc e:/pic/bin/bin/../../lib/gcc/pic32mx/4.8.3/../../../../pic32mx/lib\libm.a(fp32mul.o)
                0x9d00e688                fpmul
                0x9d00e688                __mulsf3

.text.libm      0x9d00e844      0x1ac
 .text.libm     0x9d00e844      0x1ac e:/pic/bin/bin/../../lib/gcc/pic32mx/4.8.3/../../../../pic32mx/lib\libm.a(fpsqrt32.o)
                0x9d00e844                fpsqrt
                0x9d00e844                __mchp_sqrtf

.text.__ldexp   0x9d00e9f0      0x1a8
 .text.__ldexp  0x9d00e9f0      0x1a8 e:/pic/bin/bin/../../lib/gcc/pic32mx/4.8.3/../../../../pic32mx/lib\libe.a(_ldexp.o)
                0x9d00e9f0                __ldexp

.text           0x9d00eb98      0x2d0
 .text          0x9d00eb98      0x168 e:/pic/bin/bin/../../lib/gcc/pic32mx/4.8.3/../../../../pic32mx/lib\libpic32.a(memcpy.o)
                0x9d00eb98                memcpy
 .text          0x9d00ed00      0x168 e:/pic/bin/bin/../../lib/gcc/pic32mx/4.8.3/../../../../pic32mx/lib\libpic32.a(strlen.o)
                0x9d00ed00                strlen

.text.libm      0x9d00ee68      0x148
 .text.libm     0x9d00ee68      0x148 e:/pic/bin/bin/../../lib/gcc/pic32mx/4.8.3/../../../../pic32mx/lib\libm.a(fpfmod.o)
                0x9d00ee68                fpfmod
                0x9d00ee68                fmodf

.text._outcnvrt
                0x9d00efb0      0x13c
 .text._outcnvrt
                0x9d00efb0      0x13c e:/pic/bin/bin/../../lib/gcc/pic32mx/4.8.3/../../../../pic32mx/lib\liblega-c.a(_doprnt_cdfFnopuxX.eo)

.text.libm      0x9d00f0ec      0x234
 .text.libm     0x9d00f0ec      0x11c e:/pic/bin/bin/../../lib/gcc/pic32mx/4.8.3/../../../../pic32mx/lib\libm.a(fpsin32.o)
                0x9d00f0ec                sinf
                0x9d00f0ec                fpsin
 .text.libm     0x9d00f208      0x118 e:/pic/bin/bin/../../lib/gcc/pic32mx/4.8.3/../../../../pic32mx/lib\libm.a(fpcos32.o)
                0x9d00f208                cosf
                0x9d00f208                fpcos

.text.libm      0x9d00f320      0x10c
 .text.libm     0x9d00f320      0x10c e:/pic/bin/bin/../../lib/gcc/pic32mx/4.8.3/../../../../pic32mx/lib\libm.a(fpreduct32.o)
                0x9d00f320                fpreduct

.rodata         0x9d00f42c      0x104
 .rodata        0x9d00f42c      0x104 e:/pic/bin/bin/../../lib/gcc/pic32mx/4.8.3/../../../../pic32mx/lib\liblega-c.a(ctype.o)
                0x9d00f42c                _ctype

.text.strncpy   0x9d00f530      0x100
 .text.strncpy  0x9d00f530      0x100 e:/pic/bin/bin/../../lib/gcc/pic32mx/4.8.3/../../../../pic32mx/lib\liblega-c.a(strncpy.o)
                0x9d00f530                strncpy

.text.dptofp    0x9d00f630      0x100
 .text.dptofp   0x9d00f630      0x100 e:/pic/bin/bin/../../lib/gcc/pic32mx/4.8.3/../../../../pic32mx/lib\libm.a(dptofp.o)
                0x9d00f630                __truncdfsf2
                0x9d00f630                dptofp

.text._flsbuf_simple
                0x9d00f730       0xfc
 .text._flsbuf_simple
                0x9d00f730       0xfc e:/pic/bin/bin/../../lib/gcc/pic32mx/4.8.3/../../../../pic32mx/lib\liblega-c.a(_iobfuncs.o)
                0x9d00f730                _flsbuf_simple

.text.libm.fpexsqrt
                0x9d00f82c       0xfc
 .text.libm.fpexsqrt
                0x9d00f82c       0xfc e:/pic/bin/bin/../../lib/gcc/pic32mx/4.8.3/../../../../pic32mx/lib\libm.a(fpexsqrt32.o)
                0x9d00f82c                fpexsqrt

.text           0x9d00f928       0xf4
 .text          0x9d00f928       0xf4 build/default/production/MAX17043.o

.text.strchr    0x9d00fa1c       0xf4
 .text.strchr   0x9d00fa1c       0xf4 e:/pic/bin/bin/../../lib/gcc/pic32mx/4.8.3/../../../../pic32mx/lib\liblega-c.a(strchr.o)
                0x9d00fa1c                strchr

.text._mon_getc
                0x9d00fb10       0xe4
 .text._mon_getc
                0x9d00fb10       0xe4 e:/pic/bin/bin/../../lib/gcc/pic32mx/4.8.3/../../../../pic32mx/lib\libpic32.a(_mon_getc.o)
                0x9d00fb10                _mon_getc

.text.general_exception
                0x9d00fbf4       0xdc
 .text.general_exception
                0x9d00fbf4       0xdc e:/pic/bin/bin/../../lib/gcc/pic32mx/4.8.3/../../../../pic32mx/lib\libpic32.a(general-exception.o)
                0x9d00fbf4                _general_exception_context

.text.libm      0x9d00fcd0       0xd4
 .text.libm     0x9d00fcd0       0xd4 e:/pic/bin/bin/../../lib/gcc/pic32mx/4.8.3/../../../../pic32mx/lib\libm.a(fpmodf.o)
                0x9d00fcd0                fpmodf
                0x9d00fcd0                modff

.text._mon_putc
                0x9d00fda4       0xd4
 .text._mon_putc
                0x9d00fda4       0xd4 e:/pic/bin/bin/../../lib/gcc/pic32mx/4.8.3/../../../../pic32mx/lib\libpic32.a(_mon_putc.o)
                0x9d00fda4                _mon_putc

.rodata         0x9d00fe78       0xc8
 .rodata        0x9d00fe78       0xc8 build/default/production/BNO055.o

.text.fputc     0x9d00ff40       0xac
 .text.fputc    0x9d00ff40       0xac e:/pic/bin/bin/../../lib/gcc/pic32mx/4.8.3/../../../../pic32mx/lib\liblega-c.a(fputc.o)
                0x9d00ff40                fputc

.text           0x9d00ffec       0xa8
 .text          0x9d00ffec       0xa8 e:/pic/bin/bin/../../lib/gcc/pic32mx/4.8.3/../../../../pic32mx/lib\libpic32.a(memset.o)
                0x9d00ffec                memset

.text.repl      0x9d010094       0x9c
 .text.repl     0x9d010094       0x9c e:/pic/bin/bin/../../lib/gcc/pic32mx/4.8.3/../../../../pic32mx/lib\liblega-c.a(_doprnt_cdfFnopuxX.eo)

.text.fpcmp     0x9d010130       0x9c
 .text.fpcmp    0x9d010130       0x9c e:/pic/bin/bin/../../lib/gcc/pic32mx/4.8.3/../../../../pic32mx/lib\libm.a(fpcmp.o)
                0x9d010130                __nesf2
                0x9d010130                __gtsf2
                0x9d010130                __eqsf2
                0x9d010130                __ltsf2
                0x9d010130                fpcmp
                0x9d010130                __gesf2
                0x9d010130                __lesf2

.text           0x9d0101cc       0x84
 .text          0x9d0101cc       0x84 e:/pic/bin/bin/../../lib/gcc/pic32mx/4.8.3/../../../../pic32mx/lib\libpic32.a(pic32_data_init.o)
                0x9d0101cc                __pic32_data_init

.text._fflush_simple
                0x9d010250       0x80
 .text._fflush_simple
                0x9d010250       0x80 e:/pic/bin/bin/../../lib/gcc/pic32mx/4.8.3/../../../../pic32mx/lib\liblega-c.a(_iobfuncs.o)
                0x9d010250                _fflush_simple

.text._fwrite_simple
                0x9d0102d0       0x80
 .text._fwrite_simple
                0x9d0102d0       0x80 e:/pic/bin/bin/../../lib/gcc/pic32mx/4.8.3/../../../../pic32mx/lib\liblega-c.a(_iobfuncs.o)
                0x9d0102d0                _fwrite_simple

.text.fptoli    0x9d010350       0x80
 .text.fptoli   0x9d010350       0x80 e:/pic/bin/bin/../../lib/gcc/pic32mx/4.8.3/../../../../pic32mx/lib\libm.a(fptoli.o)
                0x9d010350                fptoli
                0x9d010350                fptosi
                0x9d010350                __fixsfsi

.text.fptoul    0x9d0103d0       0x7c
 .text.fptoul   0x9d0103d0       0x7c e:/pic/bin/bin/../../lib/gcc/pic32mx/4.8.3/../../../../pic32mx/lib\libm.a(fptoul.o)
                0x9d0103d0                __fixunssfsi
                0x9d0103d0                fptoul
                0x9d0103d0                fptoui

.text.asinf     0x9d01044c       0x7c
 .text.asinf    0x9d01044c       0x7c e:/pic/bin/bin/../../lib/gcc/pic32mx/4.8.3/../../../../pic32mx/lib\libm.a(w_asinf.o)
                0x9d01044c                asinf

.text.litodp    0x9d0104c8       0x78
 .text.litodp   0x9d0104c8       0x78 e:/pic/bin/bin/../../lib/gcc/pic32mx/4.8.3/../../../../pic32mx/lib\libm.a(litodp.o)
                0x9d0104c8                litodp
                0x9d0104c8                __floatsidf

.text.strstr    0x9d010540       0x74
 .text.strstr   0x9d010540       0x74 e:/pic/bin/bin/../../lib/gcc/pic32mx/4.8.3/../../../../pic32mx/lib\liblega-c.a(strstr.o)
                0x9d010540                strstr

.text._sprintf_cdfFnopuxX
                0x9d0105b4       0x6c
 .text._sprintf_cdfFnopuxX
                0x9d0105b4       0x6c e:/pic/bin/bin/../../lib/gcc/pic32mx/4.8.3/../../../../pic32mx/lib\liblega-c.a(sprintf_cdfFnopuxX.eo)
                0x9d0105b4                _sprintf_cdfFnopuxX
                0x9d0105b4                _sprintf_fF
                0x9d0105b4                _sprintf_cdnopuxX

.text.__sputn   0x9d010620       0x68
 .text.__sputn  0x9d010620       0x68 e:/pic/bin/bin/../../lib/gcc/pic32mx/4.8.3/../../../../pic32mx/lib\liblega-c.a(_doprnt_cdfFnopuxX.eo)

.rodata         0x9d010688       0x68
 .rodata        0x9d010688       0x68 e:/pic/bin/bin/../../lib/gcc/pic32mx/4.8.3/../../../../pic32mx/lib\liblega-c.a(_doprnt_cdfFnopuxX.eo)

.text.sqrtf     0x9d0106f0       0x68
 .text.sqrtf    0x9d0106f0       0x68 e:/pic/bin/bin/../../lib/gcc/pic32mx/4.8.3/../../../../pic32mx/lib\libm.a(w_sqrtf.o)
                0x9d0106f0                sqrtf

.text.sitofp    0x9d010758       0x60
 .text.sitofp   0x9d010758       0x60 e:/pic/bin/bin/../../lib/gcc/pic32mx/4.8.3/../../../../pic32mx/lib\libm.a(sitofp.o)
                0x9d010758                __floatsisf
                0x9d010758                litofp
                0x9d010758                sitofp

.text.main_entry
                0x9d0107b8       0x54
 .text.main_entry
                0x9d0107b8       0x54 e:/pic/bin/bin/../../lib/gcc/pic32mx/4.8.3/../../../../pic32mx/lib/./proc/32MX170F256B/crt0_mips32r2.o
                0x9d0107ec                __crt0_exit

.text           0x9d01080c       0x4c
 .text          0x9d01080c       0x4c e:/pic/bin/bin/../../lib/gcc/pic32mx/4.8.3\libgcc.a(floatunsisf.o)
                0x9d01080c                __floatunsisf

.text._mon_write
                0x9d010858       0x4c
 .text._mon_write
                0x9d010858       0x4c e:/pic/bin/bin/../../lib/gcc/pic32mx/4.8.3/../../../../pic32mx/lib\libpic32.a(_mon_write.o)
                0x9d010858                _mon_write

.text._bootstrap_exception_handler
                0x9d0108a4       0x48
 .text._bootstrap_exception_handler
                0x9d0108a4       0x48 e:/pic/bin/bin/../../lib/gcc/pic32mx/4.8.3/../../../../pic32mx/lib\libpic32.a(default-bootstrap-exception-handler.o)
                0x9d0108a4                _bootstrap_exception_handler

.text._general_exception_handler
                0x9d0108ec       0x48
 .text._general_exception_handler
                0x9d0108ec       0x48 e:/pic/bin/bin/../../lib/gcc/pic32mx/4.8.3/../../../../pic32mx/lib\libpic32.a(default-general-exception-handler.o)
                0x9d0108ec                _general_exception_handler

.vector_default
                0x9d010934       0x48
 .vector_default
                0x9d010934       0x48 e:/pic/bin/bin/../../lib/gcc/pic32mx/4.8.3/../../../../pic32mx/lib\libpic32.a(defaultinterrupt.o)
                0x9d010934                _DefaultInterrupt

.rodata         0x9d01097c       0x48
 .rodata        0x9d01097c       0x48 e:/pic/bin/bin/../../lib/gcc/pic32mx/4.8.3/../../../../pic32mx/lib\libm.a(__strtod.o)

.text           0x9d0109c4       0x84
 .text          0x9d0109c4       0x44 e:/pic/bin/bin/../../lib/gcc/pic32mx/4.8.3/../../../../pic32mx/lib\pic32_software_reset.o
                0x9d0109c4                __pic32_software_reset
 .text          0x9d010a08       0x40 e:/pic/bin/bin/../../lib/gcc/pic32mx/4.8.3\libgcc.a(_lshrdi3.o)
                0x9d010a08                __lshrdi3

.text           0x9d010a48       0x40
 .text          0x9d010a48       0x40 e:/pic/bin/bin/../../lib/gcc/pic32mx/4.8.3\libgcc.a(_ashldi3.o)
                0x9d010a48                __ashldi3

.text._filbuf_simple
                0x9d010a88       0x34
 .text._filbuf_simple
                0x9d010a88       0x34 e:/pic/bin/bin/../../lib/gcc/pic32mx/4.8.3/../../../../pic32mx/lib\liblega-c.a(_iobfuncs.o)
                0x9d010a88                _filbuf_simple

.rodata         0x9d010abc       0x30
 .rodata        0x9d010abc       0x30 build/default/production/MT3339.o

.text._fsync_simple
                0x9d010aec       0x30
 .text._fsync_simple
                0x9d010aec       0x30 e:/pic/bin/bin/../../lib/gcc/pic32mx/4.8.3/../../../../pic32mx/lib\liblega-c.a(_iobfuncs.o)
                0x9d010aec                _fsync_simple

.text.putchar   0x9d010b1c       0x24
 .text.putchar  0x9d010b1c       0x24 e:/pic/bin/bin/../../lib/gcc/pic32mx/4.8.3/../../../../pic32mx/lib\liblega-c.a(fputc.o)
                0x9d010b1c                putchar

.text.atol      0x9d010b40       0x20
 .text.atol     0x9d010b40       0x20 e:/pic/bin/bin/../../lib/gcc/pic32mx/4.8.3/../../../../pic32mx/lib\liblega-c.a(atol.o)
                0x9d010b40                atol

.text.atoi      0x9d010b60       0x20
 .text.atoi     0x9d010b60       0x20 e:/pic/bin/bin/../../lib/gcc/pic32mx/4.8.3/../../../../pic32mx/lib\liblega-c.a(atoi.o)
                0x9d010b60                atoi

.text._vfprintf_cdfFnopuxX
                0x9d010b80       0x1c
 .text._vfprintf_cdfFnopuxX
                0x9d010b80       0x1c e:/pic/bin/bin/../../lib/gcc/pic32mx/4.8.3/../../../../pic32mx/lib\liblega-c.a(_doprnt_cdfFnopuxX.eo)
                0x9d010b80                _vfprintf_cdfFnopuxX

.text.putc      0x9d010b9c       0x1c
 .text.putc     0x9d010b9c       0x1c e:/pic/bin/bin/../../lib/gcc/pic32mx/4.8.3/../../../../pic32mx/lib\liblega-c.a(fputc.o)
                0x9d010b9c                putc

.text.negdf2    0x9d010bb8       0x1c
 .text.negdf2   0x9d010bb8       0x1c e:/pic/bin/bin/../../lib/gcc/pic32mx/4.8.3/../../../../pic32mx/lib\libm.a(negdf2.o)
                0x9d010bb8                __negdf2

.rodata         0x9d010bd4       0x18
 .rodata        0x9d010bd4       0x18 build/default/production/ILI9341.o

.text           0x9d010bec       0x18
 .text          0x9d010bec       0x18 e:/pic/bin/bin/../../lib/gcc/pic32mx/4.8.3/../../../../pic32mx/lib\libpic32.a(default-nmi-handler.o)
                0x9d010bec                _nmi_handler

.text._io_exit  0x9d010c04       0x14
 .text._io_exit
                0x9d010c04       0x14 e:/pic/bin/bin/../../lib/gcc/pic32mx/4.8.3/../../../../pic32mx/lib\liblega-c.a(_doprnt_cdfFnopuxX.eo)
                0x9d010c04                _io_exit

.rodata         0x9d010c18       0x14
 .rodata        0x9d010c18       0x14 e:/pic/bin/bin/../../lib/gcc/pic32mx/4.8.3/../../../../pic32mx/lib\liblega-c.a(_iobdata.o)
                0x9d010c18                _io_funcs

.text._io_exit  0x9d010c2c       0x14
 .text._io_exit
                0x9d010c2c       0x14 e:/pic/bin/bin/../../lib/gcc/pic32mx/4.8.3/../../../../pic32mx/lib\liblega-c.a(_iobfuncs.o)

.rodata         0x9d010c40       0x14
 .rodata        0x9d010c40       0x14 e:/pic/bin/bin/../../lib/gcc/pic32mx/4.8.3/../../../../pic32mx/lib\liblega-c.a(_iobstring.o)
                0x9d010c40                _io_strfuncs

.text.fpfabs    0x9d010c54       0x14
 .text.fpfabs   0x9d010c54       0x14 e:/pic/bin/bin/../../lib/gcc/pic32mx/4.8.3/../../../../pic32mx/lib\libm.a(fpfabs.o)
                0x9d010c54                fpfabs
                0x9d010c54                fabsf

.text._on_reset
                0x9d010c68        0x8
 .text._on_reset
                0x9d010c68        0x8 e:/pic/bin/bin/../../lib/gcc/pic32mx/4.8.3/../../../../pic32mx/lib\libpic32.a(default-on-reset.o)
                0x9d010c68                _on_reset

.text._on_bootstrap
                0x9d010c70        0x8
 .text._on_bootstrap
                0x9d010c70        0x8 e:/pic/bin/bin/../../lib/gcc/pic32mx/4.8.3/../../../../pic32mx/lib\libpic32.a(default-on-bootstrap.o)
                0x9d010c70                _on_bootstrap

.text._filbuf_string
                0x9d010c78        0x8
 .text._filbuf_string
                0x9d010c78        0x8 e:/pic/bin/bin/../../lib/gcc/pic32mx/4.8.3/../../../../pic32mx/lib\liblega-c.a(_iobstring.o)

.text._flsbuf_string
                0x9d010c80        0x8
 .text._flsbuf_string
                0x9d010c80        0x8 e:/pic/bin/bin/../../lib/gcc/pic32mx/4.8.3/../../../../pic32mx/lib\liblega-c.a(_iobstring.o)

.text._fflush_string
                0x9d010c88        0x8
 .text._fflush_string
                0x9d010c88        0x8 e:/pic/bin/bin/../../lib/gcc/pic32mx/4.8.3/../../../../pic32mx/lib\liblega-c.a(_iobstring.o)

.text._fwrite_string
                0x9d010c90        0x8
 .text._fwrite_string
                0x9d010c90        0x8 e:/pic/bin/bin/../../lib/gcc/pic32mx/4.8.3/../../../../pic32mx/lib\liblega-c.a(_iobstring.o)

.text._fsync_string
                0x9d010c98        0x8
 .text._fsync_string
                0x9d010c98        0x8 e:/pic/bin/bin/../../lib/gcc/pic32mx/4.8.3/../../../../pic32mx/lib\liblega-c.a(_iobstring.o)

.rodata         0x9d010ca0        0x4
 .rodata        0x9d010ca0        0x4 e:/pic/bin/bin/../../lib/gcc/pic32mx/4.8.3/../../../../pic32mx/lib\libm.a(w_asinf.o)

.text%z242      0x00000000        0x0
 .text          0x00000000        0x0 e:/pic/bin/bin/../../lib/gcc/pic32mx/4.8.3/../../../../pic32mx/lib\libpic32.a(_mon_putc.o)

.text%z243      0x00000000        0x0
 .text          0x00000000        0x0 e:/pic/bin/bin/../../lib/gcc/pic32mx/4.8.3/../../../../pic32mx/lib\libpic32.a(xc32_uart.o)

.text%z244      0x00000000        0x0
 .text          0x00000000        0x0 e:/pic/bin/bin/../../lib/gcc/pic32mx/4.8.3/../../../../pic32mx/lib\libpic32.a(_mon_write.o)

.text%z245      0x00000000        0x0
 .text          0x00000000        0x0 e:/pic/bin/bin/../../lib/gcc/pic32mx/4.8.3/../../../../pic32mx/lib\libpic32.a(_mon_getc.o)

.text%z246      0x00000000        0x0
 .text          0x00000000        0x0 e:/pic/bin/bin/../../lib/gcc/pic32mx/4.8.3/../../../../pic32mx/lib\libe.a(_ldexp.o)

.text%z247      0x00000000        0x0
 .text          0x00000000        0x0 e:/pic/bin/bin/../../lib/gcc/pic32mx/4.8.3/../../../../pic32mx/lib\libm.a(s_lib_ver.o)

.text%z248      0x00000000        0x0
 .text          0x00000000        0x0 e:/pic/bin/bin/../../lib/gcc/pic32mx/4.8.3/../../../../pic32mx/lib\libm.a(negdf2.o)

.text%z249      0x00000000        0x0
 .text          0x00000000        0x0 e:/pic/bin/bin/../../lib/gcc/pic32mx/4.8.3/../../../../pic32mx/lib\libm.a(litodp.o)

.text%z250      0x00000000        0x0
 .text          0x00000000        0x0 e:/pic/bin/bin/../../lib/gcc/pic32mx/4.8.3/../../../../pic32mx/lib\libm.a(fpsqrt32.o)

.text%z251      0x00000000        0x0
 .text          0x00000000        0x0 e:/pic/bin/bin/../../lib/gcc/pic32mx/4.8.3/../../../../pic32mx/lib\libm.a(fpexsqrt32.o)

.text%z252      0x00000000        0x0
 .text          0x00000000        0x0 e:/pic/bin/bin/../../lib/gcc/pic32mx/4.8.3/../../../../pic32mx/lib\libm.a(fpfabs.o)

.text.fpexatan%z253
                0x00000000        0x0
 .text.fpexatan
                0x00000000        0x0 e:/pic/bin/bin/../../lib/gcc/pic32mx/4.8.3/../../../../pic32mx/lib\libm.a(fpexatan.o)

.text%z254      0x00000000        0x0
 .text          0x00000000        0x0 e:/pic/bin/bin/../../lib/gcc/pic32mx/4.8.3/../../../../pic32mx/lib\libm.a(fpexatan.o)

.text%z255      0x00000000        0x0
 .text          0x00000000        0x0 e:/pic/bin/bin/../../lib/gcc/pic32mx/4.8.3/../../../../pic32mx/lib\libm.a(fpasin.o)

.text%z256      0x00000000        0x0
 .text          0x00000000        0x0 e:/pic/bin/bin/../../lib/gcc/pic32mx/4.8.3/../../../../pic32mx/lib\libm.a(dp32subadd.o)

.text%z257      0x00000000        0x0
 .text          0x00000000        0x0 e:/pic/bin/bin/../../lib/gcc/pic32mx/4.8.3/../../../../pic32mx/lib\libm.a(dp32mul.o)

.text%z258      0x00000000        0x0
 .text          0x00000000        0x0 e:/pic/bin/bin/../../lib/gcc/pic32mx/4.8.3/../../../../pic32mx/lib\libm.a(dp32div.o)

.text%z259      0x00000000        0x0
 .text          0x00000000        0x0 e:/pic/bin/bin/../../lib/gcc/pic32mx/4.8.3/../../../../pic32mx/lib\libm.a(__strtod.o)

.text%z260      0x00000000        0x0
 .text          0x00000000        0x0 e:/pic/bin/bin/../../lib/gcc/pic32mx/4.8.3/../../../../pic32mx/lib\libm.a(w_sqrtf.o)

.text%z261      0x00000000        0x0
 .text          0x00000000        0x0 e:/pic/bin/bin/../../lib/gcc/pic32mx/4.8.3/../../../../pic32mx/lib\libm.a(w_asinf.o)

.text%z262      0x00000000        0x0
 .text          0x00000000        0x0 e:/pic/bin/bin/../../lib/gcc/pic32mx/4.8.3/../../../../pic32mx/lib\libm.a(sitofp.o)

.text%z263      0x00000000        0x0
 .text          0x00000000        0x0 e:/pic/bin/bin/../../lib/gcc/pic32mx/4.8.3/../../../../pic32mx/lib\libm.a(sincof32.o)

.text%z264      0x00000000        0x0
 .text          0x00000000        0x0 e:/pic/bin/bin/../../lib/gcc/pic32mx/4.8.3/../../../../pic32mx/lib\libm.a(fptoul.o)

.text%z265      0x00000000        0x0
 .text          0x00000000        0x0 e:/pic/bin/bin/../../lib/gcc/pic32mx/4.8.3/../../../../pic32mx/lib\libm.a(fptoli.o)

.text%z266      0x00000000        0x0
 .text          0x00000000        0x0 e:/pic/bin/bin/../../lib/gcc/pic32mx/4.8.3/../../../../pic32mx/lib\libm.a(fpsin32.o)

.text%z267      0x00000000        0x0
 .text          0x00000000        0x0 e:/pic/bin/bin/../../lib/gcc/pic32mx/4.8.3/../../../../pic32mx/lib\libm.a(fpreduct32.o)

.text%z268      0x00000000        0x0
 .text          0x00000000        0x0 e:/pic/bin/bin/../../lib/gcc/pic32mx/4.8.3/../../../../pic32mx/lib\libm.a(fpmodf.o)

.text%z269      0x00000000        0x0
 .text          0x00000000        0x0 e:/pic/bin/bin/../../lib/gcc/pic32mx/4.8.3/../../../../pic32mx/lib\libm.a(fpfmod.o)

.text%z270      0x00000000        0x0
 .text          0x00000000        0x0 e:/pic/bin/bin/../../lib/gcc/pic32mx/4.8.3/../../../../pic32mx/lib\libm.a(fpcos32.o)

.text%z271      0x00000000        0x0
 .text          0x00000000        0x0 e:/pic/bin/bin/../../lib/gcc/pic32mx/4.8.3/../../../../pic32mx/lib\libm.a(fpcmp.o)

.text%z272      0x00000000        0x0
 .text          0x00000000        0x0 e:/pic/bin/bin/../../lib/gcc/pic32mx/4.8.3/../../../../pic32mx/lib\libm.a(fp32subadd.o)

.text%z273      0x00000000        0x0
 .text          0x00000000        0x0 e:/pic/bin/bin/../../lib/gcc/pic32mx/4.8.3/../../../../pic32mx/lib\libm.a(fp32mul.o)

.text%z274      0x00000000        0x0
 .text          0x00000000        0x0 e:/pic/bin/bin/../../lib/gcc/pic32mx/4.8.3/../../../../pic32mx/lib\libm.a(fp32div.o)

.text%z275      0x00000000        0x0
 .text          0x00000000        0x0 e:/pic/bin/bin/../../lib/gcc/pic32mx/4.8.3/../../../../pic32mx/lib\libm.a(dptofp.o)

.text%z276      0x00000000        0x0
 .text          0x00000000        0x0 e:/pic/bin/bin/../../lib/gcc/pic32mx/4.8.3/../../../../pic32mx/lib\liblega-c.a(fputc.o)

.text%z277      0x00000000        0x0
 .text          0x00000000        0x0 e:/pic/bin/bin/../../lib/gcc/pic32mx/4.8.3/../../../../pic32mx/lib\liblega-c.a(_iobstring.o)

.text%z278      0x00000000        0x0
 .text          0x00000000        0x0 e:/pic/bin/bin/../../lib/gcc/pic32mx/4.8.3/../../../../pic32mx/lib\liblega-c.a(_iobfuncs.o)

.text%z279      0x00000000        0x0
 .text          0x00000000        0x0 e:/pic/bin/bin/../../lib/gcc/pic32mx/4.8.3/../../../../pic32mx/lib\liblega-c.a(_iobdata.o)

.text%z280      0x00000000        0x0
 .text          0x00000000        0x0 e:/pic/bin/bin/../../lib/gcc/pic32mx/4.8.3/../../../../pic32mx/lib\liblega-c.a(_doprnt_cdfFnopuxX.eo)

.text%z281      0x00000000        0x0
 .text          0x00000000        0x0 e:/pic/bin/bin/../../lib/gcc/pic32mx/4.8.3/../../../../pic32mx/lib\liblega-c.a(errno.o)

.text%z282      0x00000000        0x0
 .text          0x00000000        0x0 e:/pic/bin/bin/../../lib/gcc/pic32mx/4.8.3/../../../../pic32mx/lib\liblega-c.a(ctype.o)

.text%z283      0x00000000        0x0
 .text          0x00000000        0x0 e:/pic/bin/bin/../../lib/gcc/pic32mx/4.8.3/../../../../pic32mx/lib\liblega-c.a(sprintf_cdfFnopuxX.eo)

.text%z284      0x00000000        0x0
 .text          0x00000000        0x0 e:/pic/bin/bin/../../lib/gcc/pic32mx/4.8.3/../../../../pic32mx/lib\liblega-c.a(strtol.o)

.text%z285      0x00000000        0x0
 .text          0x00000000        0x0 e:/pic/bin/bin/../../lib/gcc/pic32mx/4.8.3/../../../../pic32mx/lib\liblega-c.a(atoi.o)

.text%z286      0x00000000        0x0
 .text          0x00000000        0x0 e:/pic/bin/bin/../../lib/gcc/pic32mx/4.8.3/../../../../pic32mx/lib\liblega-c.a(atol.o)

.text%z287      0x00000000        0x0
 .text          0x00000000        0x0 e:/pic/bin/bin/../../lib/gcc/pic32mx/4.8.3/../../../../pic32mx/lib\liblega-c.a(strstr.o)

.text%z288      0x00000000        0x0
 .text          0x00000000        0x0 e:/pic/bin/bin/../../lib/gcc/pic32mx/4.8.3/../../../../pic32mx/lib\liblega-c.a(strchr.o)

.text%z289      0x00000000        0x0
 .text          0x00000000        0x0 e:/pic/bin/bin/../../lib/gcc/pic32mx/4.8.3/../../../../pic32mx/lib\liblega-c.a(strncpy.o)

.text%z290      0x00000000        0x0
 .text          0x00000000        0x0 e:/pic/bin/bin/../../lib/gcc/pic32mx/4.8.3/../../../../pic32mx/lib\libpic32.a(defaultinterrupt.o)

.text%z291      0x00000000        0x0
 .text          0x00000000        0x0 e:/pic/bin/bin/../../lib/gcc/pic32mx/4.8.3/../../../../pic32mx/lib\libpic32.a(default-general-exception-handler.o)

.text%z292      0x00000000        0x0
 .text          0x00000000        0x0 e:/pic/bin/bin/../../lib/gcc/pic32mx/4.8.3/../../../../pic32mx/lib\libpic32.a(vector43.o)

.text%z293      0x00000000        0x0
 .text          0x00000000        0x0 e:/pic/bin/bin/../../lib/gcc/pic32mx/4.8.3/../../../../pic32mx/lib\libpic32.a(vector42.o)

.text%z294      0x00000000        0x0
 .text          0x00000000        0x0 e:/pic/bin/bin/../../lib/gcc/pic32mx/4.8.3/../../../../pic32mx/lib\libpic32.a(vector41.o)

.text%z295      0x00000000        0x0
 .text          0x00000000        0x0 e:/pic/bin/bin/../../lib/gcc/pic32mx/4.8.3/../../../../pic32mx/lib\libpic32.a(vector40.o)

.text%z296      0x00000000        0x0
 .text          0x00000000        0x0 e:/pic/bin/bin/../../lib/gcc/pic32mx/4.8.3/../../../../pic32mx/lib\libpic32.a(vector39.o)

.text%z297      0x00000000        0x0
 .text          0x00000000        0x0 e:/pic/bin/bin/../../lib/gcc/pic32mx/4.8.3/../../../../pic32mx/lib\libpic32.a(vector38.o)

.text%z298      0x00000000        0x0
 .text          0x00000000        0x0 e:/pic/bin/bin/../../lib/gcc/pic32mx/4.8.3/../../../../pic32mx/lib\libpic32.a(vector36.o)

.text%z299      0x00000000        0x0
 .text          0x00000000        0x0 e:/pic/bin/bin/../../lib/gcc/pic32mx/4.8.3/../../../../pic32mx/lib\libpic32.a(vector35.o)

.text%z300      0x00000000        0x0
 .text          0x00000000        0x0 e:/pic/bin/bin/../../lib/gcc/pic32mx/4.8.3/../../../../pic32mx/lib\libpic32.a(vector34.o)

.text%z301      0x00000000        0x0
 .text          0x00000000        0x0 e:/pic/bin/bin/../../lib/gcc/pic32mx/4.8.3/../../../../pic32mx/lib\libpic32.a(vector33.o)

.text%z302      0x00000000        0x0
 .text          0x00000000        0x0 e:/pic/bin/bin/../../lib/gcc/pic32mx/4.8.3/../../../../pic32mx/lib\libpic32.a(vector31.o)

.text%z303      0x00000000        0x0
 .text          0x00000000        0x0 e:/pic/bin/bin/../../lib/gcc/pic32mx/4.8.3/../../../../pic32mx/lib\libpic32.a(vector30.o)

.text%z304      0x00000000        0x0
 .text          0x00000000        0x0 e:/pic/bin/bin/../../lib/gcc/pic32mx/4.8.3/../../../../pic32mx/lib\libpic32.a(vector29.o)

.text%z305      0x00000000        0x0
 .text          0x00000000        0x0 e:/pic/bin/bin/../../lib/gcc/pic32mx/4.8.3/../../../../pic32mx/lib\libpic32.a(vector28.o)

.text%z306      0x00000000        0x0
 .text          0x00000000        0x0 e:/pic/bin/bin/../../lib/gcc/pic32mx/4.8.3/../../../../pic32mx/lib\libpic32.a(vector27.o)

.text%z307      0x00000000        0x0
 .text          0x00000000        0x0 e:/pic/bin/bin/../../lib/gcc/pic32mx/4.8.3/../../../../pic32mx/lib\libpic32.a(vector26.o)

.text%z308      0x00000000        0x0
 .text          0x00000000        0x0 e:/pic/bin/bin/../../lib/gcc/pic32mx/4.8.3/../../../../pic32mx/lib\libpic32.a(vector25.o)

.text%z309      0x00000000        0x0
 .text          0x00000000        0x0 e:/pic/bin/bin/../../lib/gcc/pic32mx/4.8.3/../../../../pic32mx/lib\libpic32.a(vector24.o)

.text%z310      0x00000000        0x0
 .text          0x00000000        0x0 e:/pic/bin/bin/../../lib/gcc/pic32mx/4.8.3/../../../../pic32mx/lib\libpic32.a(vector23.o)

.text%z311      0x00000000        0x0
 .text          0x00000000        0x0 e:/pic/bin/bin/../../lib/gcc/pic32mx/4.8.3/../../../../pic32mx/lib\libpic32.a(vector22.o)

.text%z312      0x00000000        0x0
 .text          0x00000000        0x0 e:/pic/bin/bin/../../lib/gcc/pic32mx/4.8.3/../../../../pic32mx/lib\libpic32.a(vector21.o)

.text%z313      0x00000000        0x0
 .text          0x00000000        0x0 e:/pic/bin/bin/../../lib/gcc/pic32mx/4.8.3/../../../../pic32mx/lib\libpic32.a(vector20.o)

.text%z314      0x00000000        0x0
 .text          0x00000000        0x0 e:/pic/bin/bin/../../lib/gcc/pic32mx/4.8.3/../../../../pic32mx/lib\libpic32.a(vector19.o)

.text%z315      0x00000000        0x0
 .text          0x00000000        0x0 e:/pic/bin/bin/../../lib/gcc/pic32mx/4.8.3/../../../../pic32mx/lib\libpic32.a(vector18.o)

.text%z316      0x00000000        0x0
 .text          0x00000000        0x0 e:/pic/bin/bin/../../lib/gcc/pic32mx/4.8.3/../../../../pic32mx/lib\libpic32.a(vector17.o)

.text%z317      0x00000000        0x0
 .text          0x00000000        0x0 e:/pic/bin/bin/../../lib/gcc/pic32mx/4.8.3/../../../../pic32mx/lib\libpic32.a(vector16.o)

.text%z318      0x00000000        0x0
 .text          0x00000000        0x0 e:/pic/bin/bin/../../lib/gcc/pic32mx/4.8.3/../../../../pic32mx/lib\libpic32.a(vector15.o)

.text%z319      0x00000000        0x0
 .text          0x00000000        0x0 e:/pic/bin/bin/../../lib/gcc/pic32mx/4.8.3/../../../../pic32mx/lib\libpic32.a(vector14.o)

.text%z320      0x00000000        0x0
 .text          0x00000000        0x0 e:/pic/bin/bin/../../lib/gcc/pic32mx/4.8.3/../../../../pic32mx/lib\libpic32.a(vector13.o)

.text%z321      0x00000000        0x0
 .text          0x00000000        0x0 e:/pic/bin/bin/../../lib/gcc/pic32mx/4.8.3/../../../../pic32mx/lib\libpic32.a(vector12.o)

.text%z322      0x00000000        0x0
 .text          0x00000000        0x0 e:/pic/bin/bin/../../lib/gcc/pic32mx/4.8.3/../../../../pic32mx/lib\libpic32.a(vector11.o)

.text%z323      0x00000000        0x0
 .text          0x00000000        0x0 e:/pic/bin/bin/../../lib/gcc/pic32mx/4.8.3/../../../../pic32mx/lib\libpic32.a(vector10.o)

.text%z324      0x00000000        0x0
 .text          0x00000000        0x0 e:/pic/bin/bin/../../lib/gcc/pic32mx/4.8.3/../../../../pic32mx/lib\libpic32.a(vector9.o)

.text%z325      0x00000000        0x0
 .text          0x00000000        0x0 e:/pic/bin/bin/../../lib/gcc/pic32mx/4.8.3/../../../../pic32mx/lib\libpic32.a(vector8.o)

.text%z326      0x00000000        0x0
 .text          0x00000000        0x0 e:/pic/bin/bin/../../lib/gcc/pic32mx/4.8.3/../../../../pic32mx/lib\libpic32.a(vector7.o)

.text%z327      0x00000000        0x0
 .text          0x00000000        0x0 e:/pic/bin/bin/../../lib/gcc/pic32mx/4.8.3/../../../../pic32mx/lib\libpic32.a(vector6.o)

.text%z328      0x00000000        0x0
 .text          0x00000000        0x0 e:/pic/bin/bin/../../lib/gcc/pic32mx/4.8.3/../../../../pic32mx/lib\libpic32.a(vector5.o)

.text%z329      0x00000000        0x0
 .text          0x00000000        0x0 e:/pic/bin/bin/../../lib/gcc/pic32mx/4.8.3/../../../../pic32mx/lib\libpic32.a(vector4.o)

.text%z330      0x00000000        0x0
 .text          0x00000000        0x0 e:/pic/bin/bin/../../lib/gcc/pic32mx/4.8.3/../../../../pic32mx/lib\libpic32.a(vector3.o)

.text%z331      0x00000000        0x0
 .text          0x00000000        0x0 e:/pic/bin/bin/../../lib/gcc/pic32mx/4.8.3/../../../../pic32mx/lib\libpic32.a(vector2.o)

.text%z332      0x00000000        0x0
 .text          0x00000000        0x0 e:/pic/bin/bin/../../lib/gcc/pic32mx/4.8.3/../../../../pic32mx/lib\libpic32.a(vector1.o)

.text%z333      0x00000000        0x0
 .text          0x00000000        0x0 e:/pic/bin/bin/../../lib/gcc/pic32mx/4.8.3/../../../../pic32mx/lib\libpic32.a(vector0.o)

.text%z334      0x00000000        0x0
 .text          0x00000000        0x0 e:/pic/bin/bin/../../lib/gcc/pic32mx/4.8.3/../../../../pic32mx/lib\libpic32.a(general-exception.o)

.text%z335      0x00000000        0x0
 .text          0x00000000        0x0 e:/pic/bin/bin/../../lib/gcc/pic32mx/4.8.3/../../../../pic32mx/lib\libpic32.a(default-on-bootstrap.o)

.text%z336      0x00000000        0x0
 .text          0x00000000        0x0 e:/pic/bin/bin/../../lib/gcc/pic32mx/4.8.3/../../../../pic32mx/lib\libpic32.a(default-on-reset.o)

.text%z337      0x00000000        0x0
 .text          0x00000000        0x0 e:/pic/bin/bin/../../lib/gcc/pic32mx/4.8.3/../../../../pic32mx/lib\libpic32.a(default-bootstrap-exception-handler.o)

.text%z338      0x00000000        0x0
 .text          0x00000000        0x0 e:/pic/bin/bin/../../lib/gcc/pic32mx/4.8.3/../../../../pic32mx/lib/./proc/32MX170F256B\processor.o

.text%z339      0x00000000        0x0
 .text          0x00000000        0x0 e:/pic/bin/bin/../../lib/gcc/pic32mx/4.8.3/../../../../pic32mx/lib/./proc/32MX170F256B\default_isr_vectors.o

.text%z340      0x00000000        0x0
 .text          0x00000000        0x0 e:/pic/bin/bin/../../lib/gcc/pic32mx/4.8.3/../../../../pic32mx/lib\debug-exception-return.o

.text%z341      0x00000000        0x0
 .text          0x00000000        0x0 e:/pic/bin/bin/../../lib/gcc/pic32mx/4.8.3/../../../../pic32mx/lib/./proc/32MX170F256B/crt0_mips32r2.o
